(dp1
S'opt'
p2
ccopy_reg
_reconstructor
p3
(cargparse
Namespace
p4
c__builtin__
object
p5
NtRp6
(dp7
S'grad_clip'
p8
F0.10000000000000001
sS'vocab_size'
p9
I2294
sS'scheduled_sampling_increase_prob'
p10
F0.050000000000000003
sS'scheduled_sampling_max_prob'
p11
F0.25
sS'scheduled_sampling_increase_every'
p12
I5
sS'fc_feat_size'
p13
I2048
sS'input_json'
p14
S'data/combined_out.json'
p15
sS'start_from'
p16
NsS'use_att'
p17
I00
sS'current_lr'
p18
F8.3886080000000049e-05
sS'seq_per_img'
p19
I5
sS'num_layers'
p20
I1
sS'max_epochs'
p21
I30
sS'weight_decay'
p22
I0
sS'norm_att_feat'
p23
I0
sS'id'
p24
S'fc'
p25
sS'checkpoint_path'
p26
S'log_fc'
p27
sS'learning_rate_decay_every'
p28
I3
sS'use_bn'
p29
I0
sS'input_encoding_size'
p30
I512
sS'att_feat_size'
p31
I2048
sS'input_fc_dir'
p32
S'data/combined_out_fc'
p33
sS'caption_model'
p34
S'fc'
p35
sS'use_box'
p36
I0
sS'norm_box_feat'
p37
I0
sS'rnn_type'
p38
S'lstm'
p39
sS'scheduled_sampling_start'
p40
I0
sS'cider_reward_weight'
p41
I1
sS'optim'
p42
S'adam'
p43
sS'train_only'
p44
I0
sS'learning_rate'
p45
F0.00050000000000000001
sS'input_box_dir'
p46
S'data/cocotalk_box'
p47
sS'batch_size'
p48
I10
sS'drop_prob_lm'
p49
F0.5
sS'self_critical_after'
p50
I-1
sS'att_hid_size'
p51
I512
sS'losses_log_every'
p52
I25
sS'learning_rate_decay_rate'
p53
F0.80000000000000004
sS'ss_prob'
p54
F0.25
sS'logit_layers'
p55
I1
sS'rnn_size'
p56
I512
sS'optim_beta'
p57
F0.999
sS'input_att_dir'
p58
S'data/combined_out_att'
p59
sS'learning_rate_decay_start'
p60
I0
sS'save_checkpoint_every'
p61
I6000
sS'cached_tokens'
p62
S'coco-train-idxs'
p63
sS'val_images_use'
p64
I5000
sS'seq_length'
p65
I60
sS'optim_alpha'
p66
F0.90000000000000002
sS'beam_size'
p67
I1
sS'input_label_h5'
p68
S'data/combined_out_label.h5'
p69
sS'language_eval'
p70
I0
sS'optim_epsilon'
p71
F1e-08
sS'load_best_score'
p72
I1
sS'bleu_reward_weight'
p73
I0
sbsS'vocab'
p74
(dp75
V344
p76
Vask
p77
sV345
p78
Vhowever
p79
sV346
p80
Vloading
p81
sV347
p82
Vwear
p83
sV340
p84
Vdrawn
p85
sV341
p86
Vpeopke
p87
sV342
p88
Vrims
p89
sV343
p90
Vrolled
p91
sV348
p92
Vnews
p93
sV349
p94
Vconvertible
p95
sV1653
p96
Vtrucking
p97
sV298
p98
Vstepping
p99
sV299
p100
Vambre
p101
sV296
p102
Vcolors
p103
sV297
p104
Vsown
p105
sV294
p106
Vdeparting
p107
sV295
p108
Varrayed
p109
sV292
p110
Vdot
p111
sV293
p112
Vsaying
p113
sV290
p114
Vpoints
p115
sV291
p116
Vshadowed
p117
sV2147
p118
Vgestures
p119
sV270
p120
Vsubjects
p121
sV271
p122
Vdoors
p123
sV272
p124
Vhatch
p125
sV273
p126
Vrider
p127
sV274
p128
Veven
p129
sV275
p130
Vvehichle
p131
sV276
p132
Vthough
p133
sV277
p134
Vobject
p135
sV278
p136
Vdebsenis
p137
sV279
p138
Vfencing
p139
sV1780
p140
Vleg
p141
sV2146
p142
Vpelop
p143
sV2268
p144
Vpic
p145
sV2269
p146
Vsiting
p147
sV2262
p148
Vplaced
p149
sV2263
p150
Vbelow
p151
sV2260
p152
Vplaces
p153
sV2261
p154
Vshrunk
p155
sV2266
p156
Vint
p157
sV2267
p158
Vrecognize
p159
sV2264
p160
Vpiece
p161
sV2265
p162
Vbegun
p163
sV1781
p164
Vgathered
p165
sV2189
p166
Vsized
p167
sV108
p168
Vexample
p169
sV109
p170
Vcone
p171
sV102
p172
Vdpicture
p173
sV103
p174
Vobstacle
p175
sV100
p176
Vpeolpe
p177
sV101
p178
Vthther
p179
sV106
p180
Vim
p181
sV107
p182
Vmy
p183
sV104
p184
Vbluetruck
p185
sV105
p186
Velbow
p187
sV2046
p188
Vstripes
p189
sV2047
p190
Vlikely
p191
sV2044
p192
Vcube
p193
sV2045
p194
Vwatching
p195
sV2042
p196
Vhe
p197
sV2043
p198
Vphotographs
p199
sV2040
p200
Vrge
p201
sV2041
p202
Vriding
p203
sV2048
p204
Vautos
p205
sV2049
p206
Vones
p207
sV1372
p208
Vdue
p209
sV2038
p210
Vhadn
p211
sV1001
p212
Voutdoor
p213
sV1210
p214
Vburgundy
p215
sV1375
p216
Vbookbag
p217
sV1655
p218
Vmidturn
p219
sV1374
p220
Vomits
p221
sV99
p222
Vroof
p223
sV98
p224
Vwork
p225
sV91
p226
Vphone
p227
sV90
p228
Vtrousers
p229
sV93
p230
Vblocking
p231
sV92
p232
Vhold
p233
sV95
p234
Vme
p235
sV94
p236
Vmust
p237
sV97
p238
Vjoin
p239
sV96
p240
Vcamra
p241
sV1623
p242
Vback
p243
sV1622
p244
Vsighn
p245
sV1621
p246
Vdiffenence
p247
sV1620
p248
Vcones
p249
sV1627
p250
Vsight
p251
sV1626
p252
Vpalm
p253
sV1625
p254
Vadded
p255
sV1624
p256
Vlitter
p257
sV1999
p258
Vviewed
p259
sV1998
p260
Vclearly
p261
sV1629
p262
Vpyolons
p263
sV1377
p264
Vdont
p265
sV559
p266
Vrolling
p267
sV558
p268
Vtjis
p269
sV555
p270
Vpicture
p271
sV554
p272
Vvanished
p273
sV557
p274
Vccar
p275
sV556
p276
Vhandicap
p277
sV551
p278
Vhanded
p279
sV550
p280
Vne
p281
sV553
p282
Vholding
p283
sV552
p284
Vtim
p285
sV1439
p286
Vstands
p287
sV1199
p288
Vdisplays
p289
sV1198
p290
Vpast
p291
sV1191
p292
Vgardener
p293
sV1190
p294
Vsand
p295
sV1193
p296
Vteh
p297
sV1192
p298
Vsmall
p299
sV1195
p300
Vhaas
p301
sV1194
p302
Vfence
p303
sV1197
p304
Vtee
p305
sV1196
p306
Vstreets
p307
sV1759
p308
Vavilable
p309
sV1758
p310
Vfewer
p311
sV1757
p312
Vdiffernces
p313
sV1756
p314
Vpositions
p315
sV1755
p316
Vexits
p317
sV1754
p318
Vcrowed
p319
sV1753
p320
Vposture
p321
sV1752
p322
Vcontinued
p323
sV1751
p324
Vsombody
p325
sV1750
p326
Vshopes
p327
sV1177
p328
Vsitting
p329
sV1176
p330
Vwoman
p331
sV1175
p332
Vpaying
p333
sV1174
p334
Vroadway
p335
sV1173
p336
Vte
p337
sV1172
p338
Vfountain
p339
sV1171
p340
Vcrimson
p341
sV1170
p342
Vth
p343
sV1179
p344
Vfat
p345
sV1178
p346
Vvery
p347
sV511
p348
Vwering
p349
sV510
p350
Vdown
p351
sV513
p352
Vole
p353
sV1285
p354
Vhorizontal
p355
sV1284
p356
Vcoming
p357
sV1287
p358
Va
sV512
p359
Vlave
p360
sV1281
p361
V_there
p362
sV1280
p363
Vdifferent
p364
sV1283
p365
Vstreetlamp
p366
sV1282
p367
Vlighting
p368
sV1003
p369
Vtip
p370
sV879
p371
Vworkman
p372
sV1289
p373
Vcrowded
p374
sV1288
p375
Vshort
p376
sV514
p377
Vinitial
p378
sV1579
p379
Vlower
p380
sV1578
p381
Vhows
p382
sV689
p383
Vmad
p384
sV688
p385
Vparkingl
p386
sV685
p387
Vstaris
p388
sV684
p389
Vspot
p390
sV687
p391
V4th
p392
sV686
p393
Vperosn
p394
sV681
p395
Vstaircase
p396
sV680
p397
Vexplorer
p398
sV683
p399
Vmay
p400
sV682
p401
Vhuge
p402
sV458
p403
Vwindowed
p404
sV1226
p405
Vadiffernt
p406
sV621
p407
Valong
p408
sV873
p409
Vget
p410
sV1224
p411
Vsearch
p412
sV1223
p413
Vhass
p414
sV1222
p415
Vshops
p416
sV1221
p417
Vdirections
p418
sV1220
p419
Vtrunk
p420
sV407
p421
Vlineon
p422
sV406
p423
Vgrown
p424
sV405
p425
Vif
p426
sV404
p427
Vdisappear
p428
sV403
p429
Vic
p430
sV402
p431
Vight
p432
sV401
p433
Via
p434
sV400
p435
Vin
p436
sV1379
p437
Vnumber
p438
sV1378
p439
Vforwards
p440
sV1342
p441
Vexpect
p442
sV409
p443
Vmake
p444
sV408
p445
Voccupied
p446
sV453
p447
Vcrosswal
p448
sV454
p449
Vperoson
p450
sV2148
p451
Vtighter
p452
sV455
p453
Vadvances
p454
sV1346
p455
Vp
sV1347
p456
Vsurrounded
p457
sV379
p458
Vplay
p459
sV378
p460
Vstaors
p461
sV371
p462
Ventered
p463
sV370
p464
Vmuch
p465
sV373
p466
Vthrew
p467
sV372
p468
Vcontainers
p469
sV375
p470
Vworker
p471
sV374
p472
Vtabled
p473
sV377
p474
Vchild
p475
sV376
p476
Vdiriving
p477
sV393
p478
Vir
p479
sV392
p480
Vis
p481
sV391
p482
Vgpme
p483
sV390
p484
Vcane
p485
sV397
p486
Vbrake
p487
sV396
p488
Vcant
p489
sV395
p490
Vit
p491
sV394
p492
Vtress
p493
sV399
p494
Vtransfarmers
p495
sV398
p496
Vcans
p497
sV895
p498
Vbetween
p499
sV245
p500
Vcentered
p501
sV244
p502
Vlegs
p503
sV247
p504
Vnearing
p505
sV246
p506
Vtook
p507
sV241
p508
Vton
p509
sV240
p510
Vtot
p511
sV243
p512
Vflagpole
p513
sV242
p514
Vtoo
p515
sV249
p516
Vdistance
p517
sV248
p518
Vsomewhat
p519
sV2275
p520
Vplanting
p521
sV2274
p522
Vbalcony
p523
sV2277
p524
Vcompared
p525
sV2276
p526
Vtick
p527
sV2271
p528
Vboardwalk
p529
sV2270
p530
Vmaroon
p531
sV2273
p532
Vcolur
p533
sV2272
p534
Vcarpark
p535
sV2279
p536
Vpacks
p537
sV2278
p538
Vdressed
p539
sV2198
p540
Vhair
p541
sV179
p542
Vquadrangle
p543
sV178
p544
Vshadows
p545
sV177
p546
Vsilver
p547
sV176
p548
Vthey
p549
sV175
p550
Voneis
p551
sV174
p552
Vbreak
p553
sV173
p554
Vthee
p555
sV172
p556
Vthem
p557
sV171
p558
Vthen
p559
sV170
p560
Vversus
p561
sV2051
p562
Vstriped
p563
sV1502
p564
Vmissing
p565
sV2053
p566
Vgray
p567
sV2052
p568
Vareas
p569
sV2055
p570
Vafterimage
p571
sV2054
p572
Vtrucks
p573
sV2057
p574
Vpictured
p575
sV1503
p576
Vinitially
p577
sV2059
p578
Vlooks
p579
sV2058
p580
Vcontain
p581
sV1500
p582
Vcreating
p583
sV1501
p584
Vengaged
p585
sV1506
p586
Vdistinguish
p587
sV1507
p588
Vbronze
p589
sV1367
p590
Vpairs
p591
sV1504
p592
Vligts
p593
sV1505
p594
Voutfit
p595
sV2157
p596
Vposition
p597
sV1227
p598
Vallows
p599
sV1977
p600
Vnobody
p601
sV1976
p602
Vreversed
p603
sV659
p604
Vcan
p605
sV1975
p606
Vshorts
p607
sV1974
p608
Vgear
p609
sV1973
p610
Vpaved
p611
sV1972
p612
Vrigt
p613
sV1971
p614
Vfinal
p615
sV1970
p616
Vmessing
p617
sV1968
p618
Vmotorcyle
p619
sV1969
p620
Vtravelled
p621
sV1618
p622
Vindividuals
p623
sV1619
p624
Vsidedwalk
p625
sV1616
p626
Vvechicles
p627
sV1617
p628
Vsignal
p629
sV1614
p630
Vd
sV1615
p631
Vsemi
p632
sV1612
p633
Vbit
p634
sV1613
p635
Vvests
p636
sV1610
p637
Vmidle
p638
sV1611
p639
Vshading
p640
sV1985
p641
Vbed
p642
sV1768
p643
Vpicked
p644
sV1769
p645
Valtima
p646
sV1762
p647
Vnoted
p648
sV1763
p649
Vlocate
p650
sV1760
p651
Vanothr
p652
sV1761
p653
Vsdewalk
p654
sV1766
p655
Vvideo
p656
sV1767
p657
Vtraveling
p658
sV1764
p659
Vsmaller
p660
sV1765
p661
Vwaking
p662
sV1142
p663
Voesn
p664
sV1143
p665
Vseparate
p666
sV1140
p667
Vyou
p668
sV1141
p669
Vtrash
p670
sV1146
p671
Vm
sV1147
p672
Vincludes
p673
sV1144
p674
Vstudents
p675
sV1145
p676
Vsymbol
p677
sV1148
p678
Vwaving
p679
sV1149
p680
Vincluded
p681
sV692
p682
Veighth
p683
sV693
p684
Vman
p685
sV690
p686
Vsuch
p687
sV691
p688
Vguys
p689
sV696
p690
Vmaybe
p691
sV697
p692
Vwheelchair
p693
sV694
p694
Vbranches
p695
sV695
p696
Vwaist
p697
sV698
p698
Vquadrant
p699
sV699
p700
Vsi
p701
sV1548
p702
Vplants
p703
sV1549
p704
Vhandling
p705
sV542
p706
Vexist
p707
sV543
p708
Vshit
p709
sV540
p710
Vstadnign
p711
sV541
p712
Vcovers
p713
sV546
p714
Vno
p715
sV547
p716
Vna
p717
sV544
p718
Vlooked
p719
sV545
p720
Vmarking
p721
sV548
p722
Vwhereas
p723
sV549
p724
Vwhen
p725
sV1782
p726
Vpushing
p727
sV1783
p728
Vobjects
p729
sV1784
p730
Vlet
p731
sV1785
p732
Vothers
p733
sV1786
p734
Vextreme
p735
sV1787
p736
Vcyclist
p737
sV414
p738
Vincorrectly
p739
sV415
p740
Vseveral
p741
sV416
p742
Vcouple
p743
sV417
p744
Vwheel
p745
sV410
p746
Vbiege
p747
sV411
p748
Vbeside
p749
sV412
p750
Vcomplex
p751
sV413
p752
Vsplit
p753
sV1384
p754
Vapproximately
p755
sV1385
p756
Vdiffer
p757
sV1386
p758
Vprople
p759
sV1387
p760
Vautomobile
p761
sV418
p762
Vtops
p763
sV419
p764
Vrain
p765
sV1382
p766
Vslighltly
p767
sV1383
p768
Vdone
p769
sV368
p770
Vbeen
p771
sV369
p772
Vquickly
p773
sV366
p774
Vfro
p775
sV367
p776
Vthree
p777
sV364
p778
Vproceeded
p779
sV365
p780
Vfrist
p781
sV362
p782
Vloaded
p783
sV363
p784
Vheadlights
p785
sV360
p786
V2nd
p787
sV361
p788
Vwider
p789
sV380
p790
Veast
p791
sV381
p792
Vtank
p793
sV382
p794
Vahead
p795
sV383
p796
Vreddish
p797
sV384
p798
Vn
sV385
p799
Vweren
p800
sV386
p801
Vsuppose
p802
sV387
p803
Vstopping
p804
sV388
p805
Vcab
p806
sV389
p807
Vseven
p808
sV2190
p809
Vgarage
p810
sV2191
p811
Vbecome
p812
sV258
p813
Vtalking
p814
sV259
p815
Vinfront
p816
sV2194
p817
Vshed
p818
sV2195
p819
Vbecause
p820
sV2196
p821
Vglare
p822
sV2197
p823
Vnotices
p824
sV252
p825
Vboard
p826
sV253
p827
Vseated
p828
sV250
p829
Vshowed
p830
sV251
p831
Vtree
p832
sV256
p833
Vmini
p834
sV257
p835
Vrunner
p836
sV254
p837
Vfriend
p838
sV255
p839
Vlampstand
p840
sV2200
p841
Vhome
p842
sV2201
p843
Vthereis
p844
sV2202
p845
Vtransport
p846
sV2203
p847
Vleaf
p848
sV2204
p849
Vlean
p850
sV2205
p851
Vmarkers
p852
sV2206
p853
Vfedex
p854
sV2207
p855
Vshelter
p856
sV2208
p857
Vdoes
p858
sV2209
p859
Vbelore
p860
sV1679
p861
Vproperly
p862
sV1849
p863
Vpulling
p864
sV1848
p865
Vvisisble
p866
sV168
p867
Valking
p868
sV169
p869
Vprius
p870
sV164
p871
Vdiffrent
p872
sV165
p873
Vbulding
p874
sV166
p875
Vdifferently
p876
sV167
p877
Vhidden
p878
sV160
p879
Vmiddel
p880
sV161
p881
Vpersonal
p882
sV162
p883
Vbringing
p884
sV163
p885
Vbackpack
p886
sV1842
p887
Vbend
p888
sV1841
p889
Vdrops
p890
sV1840
p891
Vclosing
p892
sV678
p893
Vpathway
p894
sV679
p895
Vstaying
p896
sV1814
p897
Vthemselves
p898
sV1815
p899
Vgery
p900
sV1816
p901
Vmorehumans
p902
sV1817
p903
Vsort
p904
sV1810
p905
Vfew
p906
sV1811
p907
Vcamera
p908
sV1812
p909
Vintstead
p910
sV1813
p911
Vvehicle
p912
sV1818
p913
Vyelow
p914
sV1819
p915
Vstarted
p916
sV670
p917
Vpink
p918
sV671
p919
Vdiscussion
p920
sV1609
p921
Vshowing
p922
sV1608
p923
Vbig
p924
sV1979
p925
Vpicrues
p926
sV1978
p927
Vbotom
p928
sV1601
p929
Vlfet
p930
sV1600
p931
Vbollard
p932
sV1603
p933
Vunloading
p934
sV1602
p935
Vremaining
p936
sV1605
p937
Vvendor
p938
sV1604
p939
Vbin
p940
sV1607
p941
Vformat
p942
sV1606
p943
Vlacking
p944
sV809
p945
Vthan
p946
sV808
p947
Vflowers
p948
sV803
p949
Vthat
p950
sV802
p951
Vmostly
p952
sV801
p953
Veyes
p954
sV800
p955
Vlingering
p956
sV807
p957
Vquad
p958
sV806
p959
Vcorning
p960
sV805
p961
Vreceded
p962
sV804
p963
Vhumans
p964
sV1775
p965
Vobvious
p966
sV1774
p967
Vflowing
p968
sV1777
p969
Vwaling
p970
sV1776
p971
Vbird
p972
sV1771
p973
Vwaiting
p974
sV1770
p975
Vcell
p976
sV1773
p977
Vanther
p978
sV1772
p979
Vpoles
p980
sV1779
p981
Vstance
p982
sV1778
p983
Vbody
p984
sV608
p985
Vshirts
p986
sV1159
p987
Vpointing
p988
sV1158
p989
Vsince
p990
sV1155
p991
Vstarting
p992
sV1154
p993
Vmass
p994
sV1157
p995
Vall
p996
sV1156
p997
Voriginal
p998
sV1151
p999
Vcurve
p1000
sV1150
p1001
Vbuilding
p1002
sV1153
p1003
Vsewer
p1004
sV1152
p1005
Vhaving
p1006
sV1555
p1007
Vwhile
p1008
sV1554
p1009
Vpace
p1010
sV1551
p1011
Vsolid
p1012
sV1550
p1013
Vlook
p1014
sV1553
p1015
Vstraight
p1016
sV1552
p1017
Vfurthur
p1018
sV59
p1019
Vitems
p1020
sV58
p1021
Vluggage
p1022
sV1557
p1023
Vleaning
p1024
sV1556
p1025
Vbarricade
p1026
sV55
p1027
Vpath
p1028
sV54
p1029
Vcatpured
p1030
sV57
p1031
Vkids
p1032
sV56
p1033
Vdry
p1034
sV51
p1035
Vhere
p1036
sV50
p1037
Vmen
p1038
sV53
p1039
Vwalkign
p1040
sV52
p1041
Vmet
p1042
sV537
p1043
Vpassenger
p1044
sV536
p1045
Vlorry
p1046
sV535
p1047
Vloitering
p1048
sV534
p1049
Vconed
p1050
sV533
p1051
Vattached
p1052
sV532
p1053
Vpeson
p1054
sV531
p1055
Vslighyly
p1056
sV530
p1057
Vpavilion
p1058
sV539
p1059
Vsticks
p1060
sV538
p1061
Vtrio
p1062
sV1558
p1063
Vpack
p1064
sV429
p1065
Vthe
p1066
sV428
p1067
Vgame
p1068
sV1399
p1069
Vpark
p1070
sV1398
p1071
Vpositons
p1072
sV421
p1073
Vtunk
p1074
sV420
p1075
Vhand
p1076
sV423
p1077
Vnit
p1078
sV422
p1079
Vcaution
p1080
sV425
p1081
Vkept
p1082
sV424
p1083
Vkid
p1084
sV427
p1085
Vths
p1086
sV426
p1087
Vpicure
p1088
sV2183
p1089
Vintersection
p1090
sV2182
p1091
Vimmediately
p1092
sV2181
p1093
Vbottoms
p1094
sV2180
p1095
Vknow
p1096
sV2187
p1097
Vchairs
p1098
sV2186
p1099
Vlike
p1100
sV229
p1101
Vdisappearing
p1102
sV228
p1103
Vwalkers
p1104
sV227
p1105
Vpuck
p1106
sV226
p1107
Vnho
p1108
sV225
p1109
Vfeatures
p1110
sV224
p1111
Valready
p1112
sV223
p1113
Vonto
p1114
sV222
p1115
Vmoving
p1116
sV221
p1117
Visn
p1118
sV220
p1119
Vmisisng
p1120
sV2213
p1121
Vslight
p1122
sV2212
p1123
Vhose
p1124
sV2211
p1125
Vstairway
p1126
sV2210
p1127
Vintersections
p1128
sV2217
p1129
Vabout
p1130
sV2216
p1131
Vpanel
p1132
sV2215
p1133
Voffset
p1134
sV2214
p1135
Valthough
p1136
sV2219
p1137
Vcolumn
p1138
sV2218
p1139
Vgetting
p1140
sV2230
p1141
Vdoesnt
p1142
sV151
p1143
Vover
p1144
sV150
p1145
Vpothole
p1146
sV153
p1147
Vvary
p1148
sV152
p1149
Vpuling
p1150
sV155
p1151
Vdiagonally
p1152
sV154
p1153
Vlampost
p1154
sV157
p1155
Vima
p1156
sV156
p1157
Vbefore
p1158
sV159
p1159
Vsome
p1160
sV158
p1161
Vpicturethere
p1162
sV2236
p1163
Vvan
p1164
sV2199
p1165
Vdiff
p1166
sV1807
p1167
Vfron
p1168
sV1806
p1169
Vfrom
p1170
sV1805
p1171
Vfee
p1172
sV1804
p1173
Vuse
p1174
sV1803
p1175
Vsencond
p1176
sV1802
p1177
Vstanding
p1178
sV1801
p1179
Vdosent
p1180
sV1800
p1181
Vmotor
p1182
sV1809
p1183
Vnext
p1184
sV1808
p1185
Vremains
p1186
sV1524
p1187
Vhuddles
p1188
sV1948
p1189
Vconversation
p1190
sV1544
p1191
Vvaguely
p1192
sV1525
p1193
Vpt
p1194
sV1942
p1195
Vgarls
p1196
sV1943
p1197
Vg
sV1940
p1198
Vafterward
p1199
sV1941
p1200
Vbackwards
p1201
sV1946
p1202
Vskateboard
p1203
sV1526
p1204
Vverse
p1205
sV1944
p1206
Vcould
p1207
sV1945
p1208
Vhes
p1209
sV818
p1210
Vcrossroads
p1211
sV819
p1212
Vr
sV1527
p1213
Vwhom
p1214
sV810
p1215
V11
p1216
sV811
p1217
Vwide
p1218
sV812
p1219
V13
p1220
sV813
p1221
V12
p1222
sV814
p1223
V15
p1224
sV815
p1225
V17
p1226
sV816
p1227
V18
p1228
sV817
p1229
Vtransferred
p1230
sV1545
p1231
Vsleeves
p1232
sV1522
p1233
Vperon
p1234
sV1990
p1235
Vslighlty
p1236
sV1523
p1237
Vchurch
p1238
sV1993
p1239
Vwlking
p1240
sV1490
p1241
Vcurrently
p1242
sV1397
p1243
Vbehind
p1244
sV1492
p1245
Vpickup
p1246
sV1493
p1247
Vvarious
p1248
sV1494
p1249
Vprobably
p1250
sV1495
p1251
Vcrosswalk
p1252
sV1496
p1253
Vnumerous
p1254
sV1396
p1255
Vpeple
p1256
sV1498
p1257
Vavailable
p1258
sV1499
p1259
Vrecently
p1260
sV1395
p1261
Vbowed
p1262
sV1994
p1263
Vunlikely
p1264
sV1700
p1265
Vdragging
p1266
sV1701
p1267
Vpeach
p1268
sV1702
p1269
Vnan
p1270
sV1394
p1271
Vshifted
p1272
sV1704
p1273
Vinvalid
p1274
sV1705
p1275
Vaccross
p1276
sV1706
p1277
Vgrouped
p1278
sV1707
p1279
Vlightpole
p1280
sV1708
p1281
Velectrical
p1282
sV1393
p1283
Vstore
p1284
sV1996
p1285
Vbluie
p1286
sV1392
p1287
Vpassed
p1288
sV1391
p1289
Vstation
p1290
sV1390
p1291
Vpaint
p1292
sV1128
p1293
Vmovedthere
p1294
sV1129
p1295
Vay
p1296
sV1628
p1297
Vgreener
p1298
sV1120
p1299
Vaa
p1300
sV1121
p1301
Vgone
p1302
sV1122
p1303
Vsunroof
p1304
sV1123
p1305
Vmoved
p1306
sV1124
p1307
Vgeneral
p1308
sV1125
p1309
Vas
p1310
sV1126
p1311
Var
p1312
sV1127
p1313
Vat
p1314
sV524
p1315
Vfore
p1316
sV525
p1317
Vhear
p1318
sV526
p1319
Vleftside
p1320
sV527
p1321
Vremoved
p1322
sV520
p1323
Vhead
p1324
sV521
p1325
Vform
p1326
sV522
p1327
Vattempted
p1328
sV523
p1329
Vdifferences
p1330
sV1014
p1331
Vseems
p1332
sV1015
p1333
Vexcept
p1334
sV1016
p1335
Vther
p1336
sV1017
p1337
Vbricks
p1338
sV528
p1339
Vtrue
p1340
sV529
p1341
Vabsent
p1342
sV1012
p1343
Vhalfway
p1344
sV1013
p1345
Vpillar
p1346
sV1234
p1347
Vpick
p1348
sV1235
p1349
Vaction
p1350
sV1236
p1351
Vexited
p1352
sV1237
p1353
Velongated
p1354
sV1230
p1355
Vpeaking
p1356
sV1231
p1357
Vprior
p1358
sV1232
p1359
Vamount
p1360
sV1233
p1361
Varent
p1362
sV1238
p1363
Vsticking
p1364
sV1239
p1365
Vvia
p1366
sV438
p1367
Vhuman
p1368
sV439
p1369
Vyet
p1370
sV436
p1371
Vgrader
p1372
sV437
p1373
Vtransporting
p1374
sV434
p1375
Vjust
p1376
sV435
p1377
Vphoto
p1378
sV432
p1379
Vmddle
p1380
sV433
p1381
Vdeparted
p1382
sV430
p1383
Vtha
p1384
sV431
p1385
Vleft
p1386
sV1967
p1387
Vbalck
p1388
sV1960
p1389
Vreached
p1390
sV1961
p1391
Vumbrellas
p1392
sV238
p1393
Vgirls
p1394
sV239
p1395
Vtow
p1396
sV234
p1397
Vten
p1398
sV235
p1399
Vservice
p1400
sV236
p1401
Vtop
p1402
sV237
p1403
V10m
p1404
sV230
p1405
Vanother
p1406
sV231
p1407
Vwasn
p1408
sV232
p1409
Vwasa
p1410
sV233
p1411
Vhood
p1412
sV2228
p1413
Vloner
p1414
sV2229
p1415
Vguard
p1416
sV2226
p1417
Vpreviously
p1418
sV2227
p1419
Vbreezeway
p1420
sV2224
p1421
Vown
p1422
sV2225
p1423
Vletters
p1424
sV2222
p1425
Vupward
p1426
sV2223
p1427
Vshrank
p1428
sV2220
p1429
Vshipping
p1430
sV2221
p1431
Vbeige
p1432
sV1
Varrives
p1433
sV146
p1434
Vorder
p1435
sV147
p1436
Vwine
p1437
sV144
p1438
Venter
p1439
sV145
p1440
Vfirst
p1441
sV142
p1442
Vbaggage
p1443
sV143
p1444
Vgreen
p1445
sV140
p1446
Vparallel
p1447
sV141
p1448
Vthird
p1449
sV148
p1450
Voffice
p1451
sV149
p1452
Vdeck
p1453
sV2088
p1454
Vtaking
p1455
sV2089
p1456
Vaqua
p1457
sV2082
p1458
Vcourtyard
p1459
sV2083
p1460
Vtwohumans
p1461
sV2080
p1462
Vopening
p1463
sV2081
p1464
Vdrivig
p1465
sV2086
p1466
Vpolice
p1467
sV2087
p1468
Vmage
p1469
sV2084
p1470
Vjob
p1471
sV2085
p1472
Vnortheast
p1473
sV1832
p1474
Vlinger
p1475
sV1833
p1476
Vcrocked
p1477
sV1830
p1478
Vthis
p1479
sV1831
p1480
Vride
p1481
sV1836
p1482
Vcrossed
p1483
sV1837
p1484
Vthin
p1485
sV1834
p1486
Vothe
p1487
sV1835
p1488
Vanywhere
p1489
sV1838
p1490
Visland
p1491
sV1839
p1492
Vmeet
p1493
sV2154
p1494
Vfighting
p1495
sV2155
p1496
Vsets
p1497
sV939
p1498
Vlready
p1499
sV938
p1500
Vphotot
p1501
sV2150
p1502
Vcenter
p1503
sV2151
p1504
Vi
sV2152
p1505
Vandnot
p1506
sV2153
p1507
Vwell
p1508
sV933
p1509
Vdirection
p1510
sV932
p1511
V2mens
p1512
sV931
p1513
Vreflective
p1514
sV930
p1515
Vstripped
p1516
sV937
p1517
Vobserve
p1518
sV936
p1519
Vphotos
p1520
sV935
p1521
Vformed
p1522
sV934
p1523
Vshopping
p1524
sV1955
p1525
Vbonnet
p1526
sV1954
p1527
Vsack
p1528
sV1957
p1529
Vpretty
p1530
sV1956
p1531
Vset
p1532
sV1951
p1533
Vsouth
p1534
sV1950
p1535
Vbarriers
p1536
sV1953
p1537
Vscene
p1538
sV1952
p1539
Vswapped
p1540
sV1959
p1541
Vaisles
p1542
sV1958
p1543
Vlagging
p1544
sV829
p1545
Vcrossover
p1546
sV828
p1547
Valley
p1548
sV825
p1549
Voccupies
p1550
sV824
p1551
Vdiffernce
p1552
sV827
p1553
Vlocations
p1554
sV826
p1555
Vturned
p1556
sV821
p1557
Vcards
p1558
sV820
p1559
Vwere
p1560
sV823
p1561
Vanf
p1562
sV822
p1563
Vand
p1564
sV1536
p1565
Vflight
p1566
sV1483
p1567
Vsee
p1568
sV1482
p1569
Vmanning
p1570
sV1481
p1571
Vthye
p1572
sV1480
p1573
Vthrowing
p1574
sV1487
p1575
Vclose
p1576
sV1486
p1577
Vare
p1578
sV1485
p1579
Vsec
p1580
sV1484
p1581
Vindividual
p1582
sV1489
p1583
Vpictures
p1584
sV1488
p1585
Varm
p1586
sV797
p1587
Vwhite
p1588
sV796
p1589
Vmoisture
p1590
sV795
p1591
Vtell
p1592
sV794
p1593
V2
sV793
p1594
Vanyone
p1595
sV792
p1596
Vplastic
p1597
sV791
p1598
Vnobotiin
p1599
sV790
p1600
Vlanesright
p1601
sV1719
p1602
Vfurthest
p1603
sV1718
p1604
Vstructure
p1605
sV799
p1606
Vframe
p1607
sV798
p1608
Vbushy
p1609
sV1270
p1610
Vpone
p1611
sV1271
p1612
Vbuildng
p1613
sV1272
p1614
Voutfits
p1615
sV1139
p1616
Vsomeones
p1617
sV1138
p1618
V5
sV1133
p1619
Vagain
p1620
sV1132
p1621
Vcream
p1622
sV1131
p1623
Vmoves
p1624
sV1130
p1625
Vlanes
p1626
sV1137
p1627
Vgolfcart
p1628
sV1136
p1629
Vfield
p1630
sV1135
p1631
Vstorage
p1632
sV1134
p1633
Vdrivers
p1634
sV1276
p1635
Vcourt
p1636
sV1277
p1637
Vrather
p1638
sV519
p1639
Vlowest
p1640
sV518
p1641
Voverhang
p1642
sV2149
p1643
Voff
p1644
sV1009
p1645
Vlmage
p1646
sV1008
p1647
Vtouch
p1648
sV1007
p1649
Vdisperse
p1650
sV1006
p1651
Vrelevant
p1652
sV1005
p1653
Vrest
p1654
sV1004
p1655
Vneon
p1656
sV515
p1657
Vstuck
p1658
sV1002
p1659
Vbeing
p1660
sV517
p1661
Vwas
p1662
sV1000
p1663
Vgates
p1664
sV623
p1665
Vchange
p1666
sV622
p1667
Vappears
p1668
sV1225
p1669
Vcolored
p1670
sV620
p1671
Valone
p1672
sV627
p1673
Vnoticeable
p1674
sV626
p1675
Vincoming
p1676
sV625
p1677
Vboy
p1678
sV624
p1679
Vbox
p1680
sV629
p1681
Vexiting
p1682
sV628
p1683
Vbot
p1684
sV1229
p1685
Vpics
p1686
sV1228
p1687
Vstorefront
p1688
sV1535
p1689
Vsleeved
p1690
sV2
Vdissolution
p1691
sV1286
p1692
Vgine
p1693
sV11
p1694
Vcabriolet
p1695
sV10
p1696
Vbuddy
p1697
sV13
p1698
Vbike
p1699
sV12
p1700
Vvisable
p1701
sV15
p1702
Vunder
p1703
sV14
p1704
Vwhatsoever
p1705
sV17
p1706
Vsped
p1707
sV16
p1708
Vrecycle
p1709
sV19
p1710
Vguardrail
p1711
sV18
p1712
Vcruising
p1713
sV1534
p1714
Vvans
p1715
sV201
p1716
Vnewly
p1717
sV200
p1718
Vgot
p1719
sV203
p1720
Vsliding
p1721
sV202
p1722
Vinvidual
p1723
sV205
p1724
Vturning
p1725
sV204
p1726
Vperception
p1727
sV207
p1728
Vmidpoint
p1729
sV206
p1730
Vrail
p1731
sV209
p1732
Vascending
p1733
sV208
p1734
Vlittle
p1735
sV1573
p1736
Vhigher
p1737
sV1572
p1738
V9
sV1571
p1739
Vpeoples
p1740
sV2239
p1741
Vspots
p1742
sV2238
p1743
Vparkerd
p1744
sV1570
p1745
Vcorridor
p1746
sV2231
p1747
Vtiny
p1748
sV1577
p1749
Varrived
p1750
sV2233
p1751
Vroads
p1752
sV2232
p1753
Vtheye
p1754
sV2235
p1755
Vutility
p1756
sV2234
p1757
Vcrooked
p1758
sV2237
p1759
Vadditional
p1760
sV1576
p1761
Vflows
p1762
sV1575
p1763
Vsomewhere
p1764
sV1574
p1765
Vused
p1766
sV2185
p1767
Vlikea
p1768
sV2184
p1769
Vprominent
p1770
sV2095
p1771
Votherwise
p1772
sV2094
p1773
Vseperating
p1774
sV2097
p1775
Vunclear
p1776
sV2096
p1777
Vadjusted
p1778
sV2091
p1779
Vdoorway
p1780
sV2090
p1781
Vetc
p1782
sV2093
p1783
Vpassing
p1784
sV2092
p1785
Vfigures
p1786
sV2099
p1787
Vca
p1788
sV2098
p1789
Vwall
p1790
sV2188
p1791
Vmidground
p1792
sV1829
p1793
Vf
sV1828
p1794
Vphot
p1795
sV1825
p1796
Vbaby
p1797
sV1824
p1798
Vcarrying
p1799
sV1827
p1800
Vwomen
p1801
sV1826
p1802
Vvehcile
p1803
sV1821
p1804
Vesiting
p1805
sV1820
p1806
Vbecomes
p1807
sV1823
p1808
Voccurred
p1809
sV1822
p1810
Vkiosk
p1811
sV928
p1812
Vcoupe
p1813
sV929
p1814
Varte
p1815
sV2145
p1816
Vstudent
p1817
sV2144
p1818
Vpaving
p1819
sV2143
p1820
Vion
p1821
sV2142
p1822
Vwalkking
p1823
sV2141
p1824
Vbald
p1825
sV2140
p1826
Vball
p1827
sV920
p1828
Vpilings
p1829
sV921
p1830
Vtehre
p1831
sV922
p1832
Vpole
p1833
sV923
p1834
Vstretched
p1835
sV924
p1836
Vacrs
p1837
sV925
p1838
Vcycling
p1839
sV926
p1840
Vcares
p1841
sV927
p1842
Vwest
p1843
sV1920
p1844
Vfemale
p1845
sV1921
p1846
Vtents
p1847
sV1922
p1848
Vdoing
p1849
sV1923
p1850
Vslumped
p1851
sV1924
p1852
Vbay
p1853
sV1925
p1854
Vout
p1855
sV1926
p1856
Vappeaered
p1857
sV1927
p1858
Vbunched
p1859
sV1928
p1860
Vres
p1861
sV1929
p1862
Vaslso
p1863
sV832
p1864
Vany
p1865
sV833
p1866
Vsat
p1867
sV830
p1868
Vans
p1869
sV831
p1870
Vslab
p1871
sV836
p1872
Vequipment
p1873
sV837
p1874
Vtake
p1875
sV834
p1876
Visolate
p1877
sV835
p1878
Vaside
p1879
sV838
p1880
Vsure
p1881
sV839
p1882
Valtered
p1883
sV3
Vyellow
p1884
sV1986
p1885
Vstrrt
p1886
sV1987
p1887
Vlover
p1888
sV1532
p1889
Vpm
p1890
sV784
p1891
Vbobcat
p1892
sV785
p1893
Vdrove
p1894
sV786
p1895
Vopen
p1896
sV787
p1897
Vsize
p1898
sV780
p1899
Vone
p1900
sV781
p1901
Vfast
p1902
sV782
p1903
Vdirectly
p1904
sV783
p1905
Vcarry
p1906
sV1726
p1907
Vdepth
p1908
sV1727
p1909
Vopposing
p1910
sV1724
p1911
Vvehicles
p1912
sV1725
p1913
Vwalked
p1914
sV788
p1915
Vcity
p1916
sV789
p1917
Vgiven
p1918
sV1720
p1919
Vlane
p1920
sV1721
p1921
Vland
p1922
sV60
p1923
Vleaves
p1924
sV61
p1925
Vchanged
p1926
sV62
p1927
Vsymmetrical
p1928
sV63
p1929
Vdrivcing
p1930
sV64
p1931
Vtheres
p1932
sV65
p1933
Vchanges
p1934
sV66
p1935
Vmidway
p1936
sV67
p1937
Vgolden
p1938
sV68
p1939
Vvisibly
p1940
sV69
p1941
Vbrought
p1942
sV1371
p1943
Vamerican
p1944
sV1588
p1945
Vaways
p1946
sV1589
p1947
Vpepole
p1948
sV1370
p1949
Vrack
p1950
sV1582
p1951
Vnole
p1952
sV1583
p1953
Vhaul
p1954
sV1580
p1955
Vcongregated
p1956
sV1581
p1957
Volder
p1958
sV1586
p1959
Vedge
p1960
sV1373
p1961
Vleading
p1962
sV1584
p1963
Vobviously
p1964
sV1585
p1965
Vconcrete
p1966
sV1038
p1967
Vfacing
p1968
sV1039
p1969
Vnose
p1970
sV508
p1971
Vdestination
p1972
sV509
p1973
Vtwo
p1974
sV1032
p1975
Vlady
p1976
sV507
p1977
Vraised
p1978
sV1030
p1979
Vusing
p1980
sV505
p1981
Vplus
p1982
sV502
p1983
Vo
sV503
p1984
Vslightlt
p1985
sV500
p1986
Vfurtherest
p1987
sV501
p1988
Vpost
p1989
sV1212
p1990
Vonne
p1991
sV1213
p1992
Vdisbursed
p1993
sV632
p1994
Vshowdow
p1995
sV633
p1996
Vmarked
p1997
sV1216
p1998
Vhandy
p1999
sV1217
p2000
Vmovement
p2001
sV636
p2002
V1st
p2003
sV637
p2004
Vforefront
p2005
sV638
p2006
Vrogjt
p2007
sV639
p2008
Vvivid
p2009
sV1218
p2010
Voutgoing
p2011
sV1219
p2012
Vfull
p2013
sV465
p2014
Vposes
p2015
sV1728
p2016
Vcame
p2017
sV1729
p2018
Vwalker
p2019
sV1106
p2020
Vcycle
p2021
sV1107
p2022
Vwalkway
p2023
sV1104
p2024
Vwite
p2025
sV1105
p2026
Vstaircases
p2027
sV1102
p2028
Vamongst
p2029
sV1103
p2030
Vdepresis
p2031
sV1100
p2032
Viimage
p2033
sV1101
p2034
Venough
p2035
sV1458
p2036
Vremovable
p2037
sV1459
p2038
V8
sV1108
p2039
Ve
sV1109
p2040
Vtrying
p2041
sV1722
p2042
Vtexted
p2043
sV1723
p2044
Vpedestrians
p2045
sV1897
p2046
Vburgandy
p2047
sV1891
p2048
Vmentioned
p2049
sV2136
p2050
Vparty
p2051
sV2137
p2052
Vonleft
p2053
sV216
p2054
Vshelves
p2055
sV217
p2056
Vatm
p2057
sV214
p2058
Vaisle
p2059
sV215
p2060
Vavailablew
p2061
sV212
p2062
Vapposed
p2063
sV213
p2064
Vparrking
p2065
sV210
p2066
Vformation
p2067
sV211
p2068
Vcement
p2069
sV1530
p2070
Vpi
p2071
sV218
p2072
Vups
p2073
sV219
p2074
Vatv
p2075
sV2138
p2076
Vgets
p2077
sV2139
p2078
Vdifficult
p2079
sV4
Vbeyind
p2080
sV1858
p2081
Varrangement
p2082
sV1859
p2083
Vregions
p2084
sV1850
p2085
Vsomething
p2086
sV1851
p2087
Vhit
p2088
sV1852
p2089
Vtan
p2090
sV1853
p2091
Vskirt
p2092
sV1854
p2093
Vsit
p2094
sV1855
p2095
Vdistinguishable
p2096
sV1856
p2097
Vsix
p2098
sV1857
p2099
Vsidewalks
p2100
sV2172
p2101
Vother
p2102
sV2173
p2103
Vmatch
p2104
sV2170
p2105
Vsky
p2106
sV2171
p2107
Vbench
p2108
sV919
p2109
Velot
p2110
sV918
p2111
Vhunched
p2112
sV2174
p2113
Videntical
p2114
sV2175
p2115
Vincreased
p2116
sV915
p2117
Vcomes
p2118
sV914
p2119
Vtraded
p2120
sV917
p2121
Vcolor
p2122
sV916
p2123
Vamong
p2124
sV911
p2125
Vparing
p2126
sV910
p2127
Vflipped
p2128
sV913
p2129
Vwheels
p2130
sV912
p2131
Vs
sV1933
p2132
Vshut
p2133
sV1932
p2134
Vred
p2135
sV1931
p2136
V9cars
p2137
sV1930
p2138
Vcause
p2139
sV1937
p2140
Vcompletely
p2141
sV1936
p2142
Vdiagonal
p2143
sV1935
p2144
Vapproached
p2145
sV1934
p2146
Vumbrella
p2147
sV1939
p2148
Vdumpster
p2149
sV1938
p2150
Vimge
p2151
sV847
p2152
Vboys
p2153
sV846
p2154
Vviewable
p2155
sV845
p2156
Vlawn
p2157
sV844
p2158
Vgreyish
p2159
sV843
p2160
Vcleared
p2161
sV842
p2162
Vpair
p2163
sV841
p2164
Vlanding
p2165
sV840
p2166
Vopposite
p2167
sV849
p2168
Vdrive
p2169
sV848
p2170
Vlater
p2171
sV663
p2172
Varrive
p2173
sV1587
p2174
Ventry
p2175
sV1739
p2176
Vcompact
p2177
sV1738
p2178
Vseemed
p2179
sV1731
p2180
Vonce
p2181
sV1730
p2182
Vstroller
p2183
sV1733
p2184
Vstree
p2185
sV1732
p2186
Vpartial
p2187
sV662
p2188
Vmaking
p2189
sV1734
p2190
Vexisting
p2191
sV1737
p2192
Vgolf
p2193
sV1736
p2194
Vgo
p2195
sV753
p2196
V3rd
p2197
sV752
p2198
Vopened
p2199
sV751
p2200
Vcontainer
p2201
sV750
p2202
Vshown
p2203
sV757
p2204
Vhackey
p2205
sV756
p2206
Vobjext
p2207
sV755
p2208
Vrounding
p2209
sV754
p2210
Vspace
p2211
sV759
p2212
Vlooking
p2213
sV758
p2214
Vfactory
p2215
sV1595
p2216
Vworkers
p2217
sV506
p2218
Vslightly
p2219
sV1597
p2220
Vcausing
p2221
sV1596
p2222
Vpillars
p2223
sV1591
p2224
Vdenser
p2225
sV1590
p2226
Vthings
p2227
sV1593
p2228
Vtables
p2229
sV1033
p2230
Vrear
p2231
sV1599
p2232
Vscrunched
p2233
sV504
p2234
Vmagazine
p2235
sV1025
p2236
Varound
p2237
sV1024
p2238
Vpedestrain
p2239
sV1027
p2240
Vjeans
p2241
sV1031
p2242
Vaccepted
p2243
sV1021
p2244
Vinpicture
p2245
sV1020
p2246
V4
sV1023
p2247
Vheavier
p2248
sV1022
p2249
Vprominently
p2250
sV1036
p2251
Vconversing
p2252
sV1029
p2253
Vtraffic
p2254
sV1028
p2255
Vdark
p2256
sV1037
p2257
Vnissan
p2258
sV1034
p2259
Vfurniture
p2260
sV1035
p2261
Vvertically
p2262
sV605
p2263
Vbulldozer
p2264
sV604
p2265
Vupper
p2266
sV607
p2267
Vsign
p2268
sV606
p2269
Vsigh
p2270
sV601
p2271
Vteal
p2272
sV600
p2273
Vitem
p2274
sV603
p2275
Vround
p2276
sV602
p2277
Vsidewalk
p2278
sV1205
p2279
Vstood
p2280
sV1204
p2281
Vwhat
p2282
sV1207
p2283
Vclock
p2284
sV1206
p2285
Vsub
p2286
sV609
p2287
Vcargo
p2288
sV1200
p2289
Vpass
p2290
sV1203
p2291
Vtrick
p2292
sV1202
p2293
Vcrouched
p2294
sV1211
p2295
Vsuv
p2296
sV634
p2297
Vkayak
p2298
sV635
p2299
Vlamppost
p2300
sV1214
p2301
Voicture
p2302
sV1215
p2303
Vpiture
p2304
sV1111
p2305
Vlonger
p2306
sV1110
p2307
Vwith
p2308
sV1113
p2309
Varranged
p2310
sV1112
p2311
Vpull
p2312
sV1115
p2313
Vpostures
p2314
sV1114
p2315
Vdisbanding
p2316
sV1117
p2317
Vgrass
p2318
sV464
p2319
Vshadow
p2320
sV1119
p2321
Vdarker
p2322
sV1118
p2323
Vrust
p2324
sV467
p2325
Vapart
p2326
sV1449
p2327
Vscattered
p2328
sV1448
p2329
Vgold
p2330
sV466
p2331
Vhatchback
p2332
sV1357
p2333
Vhouses
p2334
sV460
p2335
Vboxes
p2336
sV1355
p2337
Vbully
p2338
sV489
p2339
Vbottom
p2340
sV488
p2341
Vfor
p2342
sV487
p2343
Vick
p2344
sV486
p2345
Vslouched
p2346
sV485
p2347
Vmultiple
p2348
sV1354
p2349
Vbast
p2350
sV483
p2351
Vholdup
p2352
sV482
p2353
Vpeople
p2354
sV481
p2355
Vcrowd
p2356
sV480
p2357
Vrighr
p2358
sV199
p2359
Vre
p2360
sV198
p2361
Vdriving
p2362
sV195
p2363
Venclosure
p2364
sV194
p2365
Vponcho
p2366
sV197
p2367
Vdrivine
p2368
sV196
p2369
Vgon
p2370
sV191
p2371
Vsruck
p2372
sV190
p2373
Vcloths
p2374
sV193
p2375
Vwhit
p2376
sV192
p2377
Vnavy
p2378
sV1454
p2379
Vcurrent
p2380
sV1455
p2381
Vavalabble
p2382
sV1456
p2383
Vstreetlights
p2384
sV1457
p2385
Vscooter
p2386
sV1450
p2387
Vhugging
p2388
sV1451
p2389
Vhillside
p2390
sV1452
p2391
Vrelation
p2392
sV1453
p2393
Vfind
p2394
sV1949
p2395
Vlength
p2396
sV2007
p2397
Vtruck
p2398
sV902
p2399
Vpcture
p2400
sV903
p2401
Vcome
p2402
sV900
p2403
Vparent
p2404
sV901
p2405
Vscreen
p2406
sV906
p2407
Vmans
p2408
sV907
p2409
Vmany
p2410
sV904
p2411
Vcaar
p2412
sV905
p2413
Vtherethen
p2414
sV1843
p2415
Vpoint
p2416
sV1511
p2417
Vlast
p2418
sV908
p2419
Vregion
p2420
sV909
p2421
Vcub
p2422
sV1847
p2423
Vhigh
p2424
sV1846
p2425
Vsanding
p2426
sV1845
p2427
Vroda
p2428
sV1844
p2429
Vbent
p2430
sV2169
p2431
Vheaded
p2432
sV2168
p2433
Vpushchair
p2434
sV2165
p2435
Vtaillight
p2436
sV2164
p2437
Vseats
p2438
sV2167
p2439
Vresidential
p2440
sV2166
p2441
Vtight
p2442
sV2161
p2443
Vdose
p2444
sV2160
p2445
Vproximity
p2446
sV2163
p2447
Vdistant
p2448
sV2162
p2449
Varriving
p2450
sV1947
p2451
Vkeep
p2452
sV1908
p2453
Vauto
p2454
sV1909
p2455
Vcomplete
p2456
sV1906
p2457
Vjunction
p2458
sV1907
p2459
Vgreater
p2460
sV1904
p2461
Vbye
p2462
sV1905
p2463
Vsapling
p2464
sV1902
p2465
Vorange
p2466
sV1903
p2467
Vcovered
p2468
sV1900
p2469
Vlt
p2470
sV1901
p2471
Vstances
p2472
sV854
p2473
Vwidth
p2474
sV855
p2475
Vquantity
p2476
sV856
p2477
Vshop
p2478
sV857
p2479
Vwalking
p2480
sV850
p2481
Vdiffernece
p2482
sV851
p2483
Vclearing
p2484
sV852
p2485
Vgrassland
p2486
sV853
p2487
Vdispersed
p2488
sV858
p2489
Vshot
p2490
sV859
p2491
Vshow
p2492
sV6
Vrailing
p2493
sV740
p2494
Vunloaded
p2495
sV741
p2496
Vsquare
p2497
sV742
p2498
Vsignificantly
p2499
sV743
p2500
Vee
p2501
sV744
p2502
Vchallenger
p2503
sV745
p2504
Vzebra
p2505
sV746
p2506
Ventering
p2507
sV747
p2508
Vsignage
p2509
sV748
p2510
Vgirl
p2511
sV749
p2512
Ver
p2513
sV1798
p2514
Vsightly
p2515
sV1050
p2516
Vascend
p2517
sV1051
p2518
Vimages
p2519
sV1052
p2520
Vdiving
p2521
sV1053
p2522
Vascent
p2523
sV1054
p2524
Vtote
p2525
sV1055
p2526
Vexit
p2527
sV1056
p2528
Vprocess
p2529
sV1057
p2530
Vtransformers
p2531
sV1058
p2532
Vpylons
p2533
sV1059
p2534
Vbusiness
p2535
sV1696
p2536
Vsingle
p2537
sV1697
p2538
Vwarning
p2539
sV1694
p2540
Vflow
p2541
sV1695
p2542
Vdoesn
p2543
sV1692
p2544
Vconstant
p2545
sV1693
p2546
Vadults
p2547
sV1690
p2548
Vclear
p2549
sV1691
p2550
Vweraing
p2551
sV1791
p2552
Vleaving
p2553
sV1698
p2554
Vcurb
p2555
sV1699
p2556
Vbedestrian
p2557
sV1278
p2558
Vstayed
p2559
sV1279
p2560
Vflorescent
p2561
sV618
p2562
Vwater
p2563
sV619
p2564
Vgroups
p2565
sV612
p2566
Vswitch
p2567
sV613
p2568
Vgoes
p2569
sV610
p2570
Vappear
p2571
sV611
p2572
Vpassenders
p2573
sV616
p2574
Vtotalling
p2575
sV617
p2576
Vchicano
p2577
sV614
p2578
Vfalling
p2579
sV615
p2580
Vhummer
p2581
sV1795
p2582
Vchang
p2583
sV1794
p2584
Vexistent
p2585
sV1491
p2586
Vtopmost
p2587
sV1472
p2588
Vseperated
p2589
sV1473
p2590
Vcommon
p2591
sV1470
p2592
Vcrv
p2593
sV1471
p2594
Vsleeve
p2595
sV1476
p2596
Vwheeling
p2597
sV1477
p2598
Vapproaching
p2599
sV1474
p2600
Vdouble
p2601
sV1475
p2602
Vx
sV1478
p2603
Vars
p2604
sV1479
p2605
Vdump
p2606
sV1304
p2607
Vpaper
p2608
sV1305
p2609
Vthrough
p2610
sV1306
p2611
Vsigns
p2612
sV1307
p2613
Vexistence
p2614
sV1300
p2615
Vsoon
p2616
sV1301
p2617
Vshopfront
p2618
sV1302
p2619
Vheld
p2620
sV1303
p2621
Visnt
p2622
sV1497
p2623
Vcrosswork
p2624
sV1308
p2625
Vstaing
p2626
sV1309
p2627
Vits
p2628
sV498
p2629
Vpose
p2630
sV499
p2631
Vdisappeared
p2632
sV494
p2633
Vskateboarder
p2634
sV495
p2635
Vcompletly
p2636
sV496
p2637
Vkhaki
p2638
sV497
p2639
Vdeleted
p2640
sV490
p2641
Vpurple
p2642
sV491
p2643
Vnormal
p2644
sV492
p2645
Vruning
p2646
sV493
p2647
Veverything
p2648
sV24
p2649
Vsly
p2650
sV25
p2651
Vschool
p2652
sV26
p2653
Vmotorcyclist
p2654
sV27
p2655
Vgreenish
p2656
sV20
p2657
Vevery
p2658
sV21
p2659
Vcircled
p2660
sV22
p2661
Vasphalt
p2662
sV23
p2663
Vlefthand
p2664
sV28
p2665
Vheading
p2666
sV29
p2667
Vclothes
p2668
sV1703
p2669
Vbacks
p2670
sV1875
p2671
Vsie
p2672
sV1709
p2673
Vtarp
p2674
sV7
Vconsists
p2675
sV1879
p2676
Vor
p2677
sV2288
p2678
Vadditionally
p2679
sV2289
p2680
Vtailgate
p2681
sV2050
p2682
Vjoins
p2683
sV2280
p2684
Vbook
p2685
sV2281
p2686
Vbranch
p2687
sV2282
p2688
Vu
sV2283
p2689
Vponytail
p2690
sV2284
p2691
Vspreaded
p2692
sV2285
p2693
Vkinds
p2694
sV2286
p2695
Vmovedment
p2696
sV2287
p2697
Vpathways
p2698
sV972
p2699
Visle
p2700
sV2056
p2701
Vstuff
p2702
sV1087
p2703
Vstrip
p2704
sV1086
p2705
Vmoped
p2706
sV1085
p2707
Visdoor
p2708
sV1876
p2709
Vpepople
p2710
sV1877
p2711
Vlight
p2712
sV1874
p2713
Vfootpath
p2714
sV1084
p2715
Vimage
p2716
sV1872
p2717
Vstars
p2718
sV1873
p2719
Vtier
p2720
sV1870
p2721
Vfram
p2722
sV1871
p2723
Vbarricades
p2724
sV1083
p2725
Vladies
p2726
sV1878
p2727
Vlines
p2728
sV1082
p2729
Vbarrels
p2730
sV977
p2731
Vnest
p2732
sV976
p2733
Vclosest
p2734
sV975
p2735
Vpersona
p2736
sV974
p2737
Vsweeper
p2738
sV973
p2739
Vtwosome
p2740
sV1081
p2741
Vamber
p2742
sV971
p2743
Vstepped
p2744
sV970
p2745
Vpad
p2746
sV1080
p2747
Vroad
p2748
sV979
p2749
Vdrives
p2750
sV978
p2751
Vdriver
p2752
sV182
p2753
Vnoticable
p2754
sV183
p2755
Vleaned
p2756
sV180
p2757
Vshadowy
p2758
sV181
p2759
Vl
sV186
p2760
Vwent
p2761
sV187
p2762
Vsliver
p2763
sV184
p2764
Varrow
p2765
sV185
p2766
Veach
p2767
sV2110
p2768
Vwaitingin
p2769
sV2111
p2770
Vam
p2771
sV188
p2772
Vside
p2773
sV189
p2774
Vlifted
p2775
sV2114
p2776
Vmail
p2777
sV2115
p2778
Vsmoking
p2779
sV2116
p2780
Van
p2781
sV1559
p2782
V30
p2783
sV1919
p2784
Vlie
p2785
sV1918
p2786
Vglasses
p2787
sV1464
p2788
Vnellow
p2789
sV1911
p2790
Veople
p2791
sV1910
p2792
Vcutting
p2793
sV1913
p2794
Vfront
p2795
sV1912
p2796
Vhands
p2797
sV1915
p2798
Vstading
p2799
sV1914
p2800
Vday
p2801
sV1917
p2802
Vcrossing
p2803
sV1916
p2804
Vblacktop
p2805
sV869
p2806
Veither
p2807
sV868
p2808
V3
sV2113
p2809
Vtheeft
p2810
sV861
p2811
Vspaces
p2812
sV860
p2813
Vbright
p2814
sV863
p2815
Vfifth
p2816
sV862
p2817
Vcorner
p2818
sV865
p2819
Vslot
p2820
sV864
p2821
Vground
p2822
sV867
p2823
Vstair
p2824
sV866
p2825
Vslow
p2826
sV2024
p2827
Vface
p2828
sV2025
p2829
Vpipe
p2830
sV2026
p2831
Vloger
p2832
sV2027
p2833
Vlowered
p2834
sV2020
p2835
Vdolley
p2836
sV2021
p2837
Vmman
p2838
sV2022
p2839
Veachother
p2840
sV2023
p2841
Vgather
p2842
sV2117
p2843
Vpresent
p2844
sV2028
p2845
Vbiggger
p2846
sV2029
p2847
Vmovie
p2848
sV883
p2849
Vinside
p2850
sV882
p2851
Vwhere
p2852
sV881
p2853
Vtent
p2854
sV880
p2855
Vmedian
p2856
sV887
p2857
Vparking
p2858
sV886
p2859
Vseat
p2860
sV885
p2861
Vhte
p2862
sV884
p2863
Vpicnic
p2864
sV889
p2865
Vbicyclist
p2866
sV888
p2867
Vvertical
p2868
sV775
p2869
Vturn
p2870
sV774
p2871
Vmotion
p2872
sV777
p2873
Vview
p2874
sV776
p2875
Vplace
p2876
sV771
p2877
Vcard
p2878
sV770
p2879
Vroaad
p2880
sV773
p2881
Vbackside
p2882
sV772
p2883
Vcare
p2884
sV779
p2885
Vomitted
p2886
sV778
p2887
Vstreeet
p2888
sV77
p2889
Vwatering
p2890
sV76
p2891
Vsweater
p2892
sV75
p2893
Vwould
p2894
sV74
p2895
Vsarah
p2896
sV73
p2897
Vlandscape
p2898
sV72
p2899
Vtotal
p2900
sV71
p2901
Vjackets
p2902
sV70
p2903
Vvisible
p2904
sV79
p2905
Vparkig
p2906
sV78
p2907
Varms
p2908
sV1043
p2909
Vstationary
p2910
sV1042
p2911
Vinter
p2912
sV1041
p2913
Vdownward
p2914
sV1040
p2915
Valways
p2916
sV1047
p2917
Vseating
p2918
sV1046
p2919
Vtwelve
p2920
sV1045
p2921
Vgrouping
p2922
sV1044
p2923
Vreduced
p2924
sV1049
p2925
Vsidwalk
p2926
sV1048
p2927
Vgreenery
p2928
sV1681
p2929
Vupright
p2930
sV1680
p2931
Vpictuer
p2932
sV1683
p2933
Vraising
p2934
sV1682
p2935
Vline
p2936
sV1685
p2937
Vbumpers
p2938
sV1684
p2939
Vpeopel
p2940
sV1687
p2941
Vup
p2942
sV1686
p2943
Vaccess
p2944
sV1689
p2945
Vsimilar
p2946
sV1688
p2947
Vus
p2948
sV1269
p2949
Vforground
p2950
sV1268
p2951
Vnumbers
p2952
sV669
p2953
Vclothing
p2954
sV668
p2955
Vdropped
p2956
sV667
p2957
Vpaused
p2958
sV1262
p2959
Vremain
p2960
sV665
p2961
Vgrassy
p2962
sV664
p2963
Vnearest
p2964
sV1267
p2965
Vpushed
p2966
sV1266
p2967
Vcompare
p2968
sV1265
p2969
Vmale
p2970
sV1264
p2971
Vcople
p2972
sV1469
p2973
Vhim
p2974
sV1468
p2975
Vduring
p2976
sV1465
p2977
Vtrees
p2978
sV1018
p2979
Vbackround
p2980
sV1467
p2981
Vclosely
p2982
sV1466
p2983
Vpreparing
p2984
sV1461
p2985
Vhip
p2986
sV1460
p2987
Vcircle
p2988
sV1463
p2989
Vtriangle
p2990
sV1019
p2991
Vumber
p2992
sV1317
p2993
Vdolly
p2994
sV1316
p2995
Vabsence
p2996
sV1315
p2997
Vactually
p2998
sV1314
p2999
V29
p3000
sV1313
p3001
V28
p3002
sV1312
p3003
Vinward
p3004
sV1311
p3005
Vstyle
p3006
sV1310
p3007
Vacrxoss
p3008
sV1319
p3009
Vtravelling
p3010
sV1318
p3011
Vdiffered
p3012
sV1010
p3013
Vkneeling
p3014
sV1011
p3015
Vcapris
p3016
sV319
p3017
Vruns
p3018
sV318
p3019
Vdumpsters
p3020
sV313
p3021
Vamberlaws
p3022
sV312
p3023
V10
p3024
sV311
p3025
Vnex
p3026
sV310
p3027
Vdo
p3028
sV317
p3029
Vihone
p3030
sV316
p3031
Vsecon
p3032
sV315
p3033
Vwallis
p3034
sV314
p3035
Vstop
p3036
sV1335
p3037
Vimgage
p3038
sV1334
p3039
Veveryone
p3040
sV1337
p3041
Vweight
p3042
sV1336
p3043
Vbends
p3044
sV1331
p3045
Vfound
p3046
sV1330
p3047
Vbuttom
p3048
sV1333
p3049
Vheavy
p3050
sV1332
p3051
Vtrailer
p3052
sV630
p3053
Vteenage
p3054
sV2293
p3055
Vportion
p3056
sV2292
p3057
Vupwards
p3058
sV2291
p3059
Vfriends
p3060
sV2290
p3061
Velse
p3062
sV631
p3063
Vextra
p3064
sV2294
p3065
Vcliming
p3066
sV1521
p3067
Vwhatever
p3068
sV1861
p3069
Vlamp
p3070
sV1860
p3071
Vlocated
p3072
sV1863
p3073
Vmilddle
p3074
sV1862
p3075
Vanimal
p3076
sV1865
p3077
Vcircular
p3078
sV1864
p3079
Vinstead
p3080
sV1867
p3081
Vbuildings
p3082
sV1866
p3083
Vyellowish
p3084
sV1869
p3085
Vhumanis
p3086
sV1868
p3087
Vexitin
p3088
sV964
p3089
Vcafe
p3090
sV965
p3091
Vpay
p3092
sV966
p3093
Vfender
p3094
sV967
p3095
Vsame
p3096
sV960
p3097
Vfame
p3098
sV961
p3099
Vmovements
p3100
sV962
p3101
Vbags
p3102
sV963
p3103
Vpar
p3104
sV968
p3105
Vgentlemen
p3106
sV969
p3107
Vshifts
p3108
sV2109
p3109
Vangled
p3110
sV2108
p3111
Vumbrelas
p3112
sV2103
p3113
Voccured
p3114
sV2102
p3115
Vpicking
p3116
sV2101
p3117
Vtable
p3118
sV2100
p3119
Vwalk
p3120
sV2107
p3121
Vnnot
p3122
sV2106
p3123
Vaddition
p3124
sV2105
p3125
Vpowered
p3126
sV2104
p3127
Vmotorbike
p3128
sV1560
p3129
Vbacking
p3130
sV1241
p3131
Vsuddenly
p3132
sV878
p3133
Vsideway
p3134
sV1240
p3135
Vfamily
p3136
sV876
p3137
Vnearly
p3138
sV877
p3139
Vlighter
p3140
sV874
p3141
Vtilting
p3142
sV875
p3143
Vspraying
p3144
sV872
p3145
Vblack
p3146
sV1243
p3147
Vviz
p3148
sV870
p3149
Vonly
p3150
sV871
p3151
Vgoing
p3152
sV2037
p3153
Vtire
p3154
sV2036
p3155
Vnearer
p3156
sV2035
p3157
Vparked
p3158
sV1242
p3159
Vput
p3160
sV2033
p3161
Vbiker
p3162
sV2032
p3163
Vgentleman
p3164
sV2031
p3165
Vemerging
p3166
sV2030
p3167
Vson
p3168
sV9
Vtrolley
p3169
sV1245
p3170
Vtakes
p3171
sV2039
p3172
Vbrighter
p3173
sV1244
p3174
Vpulls
p3175
sV890
p3176
Vways
p3177
sV891
p3178
Voppening
p3179
sV892
p3180
Voutsice
p3181
sV893
p3182
Vhandtruck
p3183
sV894
p3184
Voutside
p3185
sV1247
p3186
Vfinally
p3187
sV896
p3188
Vreading
p3189
sV897
p3190
Vacross
p3191
sV898
p3192
Vdifferes
p3193
sV899
p3194
Vnotice
p3195
sV646
p3196
Vpeope
p3197
sV1249
p3198
V6
sV648
p3199
Voof
p3200
sV1537
p3201
Vgay
p3202
sV1964
p3203
Vstaning
p3204
sV1965
p3205
Vracks
p3206
sV1966
p3207
Vtheir
p3208
sV1788
p3209
Vgreat
p3210
sV1789
p3211
Vdividing
p3212
sV768
p3213
Vajar
p3214
sV769
p3215
Vdissonant
p3216
sV762
p3217
Vcars
p3218
sV763
p3219
Vseventh
p3220
sV760
p3221
Vshows
p3222
sV761
p3223
Vearlier
p3224
sV766
p3225
Vaddtional
p3226
sV767
p3227
Vbesides
p3228
sV764
p3229
Vcart
p3230
sV765
p3231
Vquite
p3232
sV1962
p3233
Vrigh
p3234
sV1963
p3235
Vunknown
p3236
sV1078
p3237
Vot
p3238
sV1079
p3239
Vgesturing
p3240
sV1076
p3241
Vslights
p3242
sV1077
p3243
Vthreesome
p3244
sV1074
p3245
Vqueued
p3246
sV1075
p3247
Vstand
p3248
sV1072
p3249
Vof
p3250
sV1073
p3251
Vbollards
p3252
sV1070
p3253
Vpackage
p3254
sV1071
p3255
Vjeep
p3256
sV1678
p3257
Vsde
p3258
sV1561
p3259
Vstations
p3260
sV1674
p3261
Vhimself
p3262
sV1675
p3263
Velsewhere
p3264
sV1676
p3265
Vinches
p3266
sV1677
p3267
Vposter
p3268
sV1670
p3269
Vforward
p3270
sV1671
p3271
Vsections
p3272
sV1672
p3273
Vcraging
p3274
sV1673
p3275
Vconsiderably
p3276
sV1094
p3277
Vthere
p3278
sV1095
p3279
Vstart
p3280
sV1096
p3281
Vlow
p3282
sV1097
p3283
Vlot
p3284
sV1090
p3285
Vlog
p3286
sV1091
p3287
Vher
p3288
sV1092
p3289
Varea
p3290
sV1093
p3291
Varen
p3292
sV674
p3293
Vstnaindg
p3294
sV675
p3295
Vfourth
p3296
sV676
p3297
Vdifferents
p3298
sV677
p3299
Vdivider
p3300
sV1098
p3301
Vthers
p3302
sV1099
p3303
Villuminated
p3304
sV672
p3305
Vsuitcases
p3306
sV673
p3307
Vdumpter
p3308
sV1997
p3309
Vapparently
p3310
sV1533
p3311
Vresting
p3312
sV1418
p3313
Vcleaner
p3314
sV1419
p3315
Vigor
p3316
sV1410
p3317
Vgrey
p3318
sV1411
p3319
Vyouth
p3320
sV1412
p3321
Vstall
p3322
sV1413
p3323
Vstp
p3324
sV1414
p3325
Vtoward
p3326
sV1415
p3327
Vimsge
p3328
sV1416
p3329
Vpedestreians
p3330
sV1417
p3331
Vbooth
p3332
sV1322
p3333
Vsomebody
p3334
sV1323
p3335
Vmales
p3336
sV1320
p3337
Vmight
p3338
sV1321
p3339
Vsomeone
p3340
sV1326
p3341
Vbigger
p3342
sV1327
p3343
Vhuddle
p3344
sV1324
p3345
Vfoot
p3346
sV1325
p3347
Vys
p3348
sV1328
p3349
Vfully
p3350
sV1329
p3351
Vstopped
p3352
sV5
Vfour
p3353
sV1531
p3354
Vempty
p3355
sV1256
p3356
Vflag
p3357
sV1257
p3358
Vnone
p3359
sV1254
p3360
Vsuvs
p3361
sV1255
p3362
Vmotin
p3363
sV1252
p3364
Vflat
p3365
sV1253
p3366
Vdoor
p3367
sV1250
p3368
Vtaken
p3369
sV1251
p3370
Vmore
p3371
sV1528
p3372
Vdropping
p3373
sV1529
p3374
Vbrick
p3375
sV1258
p3376
Vinclude
p3377
sV1259
p3378
Vorganization
p3379
sV308
p3380
Vfolder
p3381
sV309
p3382
Vwearing
p3383
sV300
p3384
Vbusy
p3385
sV301
p3386
Vpanned
p3387
sV302
p3388
Vbuss
p3389
sV303
p3390
Vfolded
p3391
sV304
p3392
Vbush
p3393
sV305
p3394
Vcaris
p3395
sV306
p3396
Vrick
p3397
sV307
p3398
Vfolks
p3399
sV1792
p3400
Vsuggests
p3401
sV2254
p3402
Vgrate
p3403
sV470
p3404
Vcooler
p3405
sV471
p3406
Vperforming
p3407
sV1898
p3408
Vlampposts
p3409
sV1899
p3410
Vpoeple
p3411
sV1894
p3412
Vouter
p3413
sV1895
p3414
Vla
p3415
sV1896
p3416
Vlo
p3417
sV1443
p3418
Vrighrt
p3419
sV1890
p3420
Vmotorcycle
p3421
sV476
p3422
Vsecurity
p3423
sV1892
p3424
Vbunch
p3425
sV1893
p3426
V1
sV959
p3427
Vcanot
p3428
sV958
p3429
Vgood
p3430
sV2134
p3431
Vmember
p3432
sV2135
p3433
Vparts
p3434
sV2132
p3435
Vheadlight
p3436
sV2133
p3437
Vcross
p3438
sV2130
p3439
Vbegining
p3440
sV2131
p3441
Vperhaps
p3442
sV951
p3443
Vspotlight
p3444
sV950
p3445
Vabducted
p3446
sV953
p3447
Vcanoe
p3448
sV952
p3449
Vvest
p3450
sV955
p3451
Vtelephone
p3452
sV954
p3453
Vpurse
p3454
sV957
p3455
Vmiddle
p3456
sV956
p3457
Vcouples
p3458
sV1442
p3459
Vcover
p3460
sV477
p3461
Voncoming
p3462
sV2002
p3463
Vrearranged
p3464
sV2003
p3465
Vmid
p3466
sV2000
p3467
Vshe
p3468
sV2001
p3469
Vangle
p3470
sV2006
p3471
Vwhich
p3472
sV1440
p3473
Vwindows
p3474
sV2004
p3475
Vparks
p3476
sV2005
p3477
Voutward
p3478
sV2008
p3479
Vsayingh
p3480
sV2009
p3481
Vhoodlums
p3482
sV2034
p3483
Vbikes
p3484
sV1790
p3485
Vlarger
p3486
sV1263
p3487
Vnine
p3488
sV666
p3489
Vfigure
p3490
sV2176
p3491
Vstooped
p3492
sV1261
p3493
Vguards
p3494
sV2177
p3495
Vincreases
p3496
sV1799
p3497
Vdecrease
p3498
sV1260
p3499
Vcluster
p3500
sV719
p3501
Vplatform
p3502
sV718
p3503
Vforms
p3504
sV717
p3505
Vvicinity
p3506
sV716
p3507
Vhow
p3508
sV715
p3509
Vgroup
p3510
sV714
p3511
Vblocked
p3512
sV713
p3513
Vstill
p3514
sV712
p3515
Vcongregating
p3516
sV711
p3517
Vcuts
p3518
sV710
p3519
Vterrace
p3520
sV661
p3521
Vfollowing
p3522
sV660
p3523
Vstature
p3524
sV2178
p3525
Vparalell
p3526
sV1069
p3527
Vcentral
p3528
sV1068
p3529
Von
p3530
sV2179
p3531
Vfive
p3532
sV1061
p3533
Vseconds
p3534
sV1060
p3535
Vraincoat
p3536
sV1063
p3537
Vnotable
p3538
sV1062
p3539
Vsixth
p3540
sV1065
p3541
Vstrret
p3542
sV1064
p3543
Vbroken
p3544
sV1067
p3545
Vseconde
p3546
sV1066
p3547
Vexciting
p3548
sV1669
p3549
Vsuit
p3550
sV1668
p3551
Vtright
p3552
sV1667
p3553
Vlong
p3554
sV1666
p3555
Vlone
p3556
sV1665
p3557
Vretrieving
p3558
sV1664
p3559
Vrows
p3560
sV1663
p3561
Vclack
p3562
sV1662
p3563
Vservices
p3564
sV1661
p3565
Vtaillights
p3566
sV1660
p3567
Vwithin
p3568
sV591
p3569
Vredish
p3570
sV590
p3571
Vvaccuum
p3572
sV593
p3573
Vtherrer
p3574
sV592
p3575
Vexact
p3576
sV595
p3577
Vlevel
p3578
sV594
p3579
Vclouds
p3580
sV597
p3581
Vturns
p3582
sV596
p3583
Vdid
p3584
sV599
p3585
Vleave
p3586
sV598
p3587
Vposts
p3588
sV1089
p3589
Vamassed
p3590
sV1088
p3591
Vtilted
p3592
sV1409
p3593
Vlargely
p3594
sV1408
p3595
Vgotten
p3596
sV1403
p3597
Vstirs
p3598
sV1402
p3599
Vstairs
p3600
sV1401
p3601
Vbelieve
p3602
sV1400
p3603
Vpart
p3604
sV1407
p3605
Vpickups
p3606
sV1406
p3607
Vb
sV1405
p3608
Vkind
p3609
sV1404
p3610
Vreflection
p3611
sV1546
p3612
Vfirt
p3613
sV449
p3614
Vadvanced
p3615
sV448
p3616
Vspread
p3617
sV1339
p3618
Vhard
p3619
sV1338
p3620
Vhouse
p3621
sV1547
p3622
Vwheeled
p3623
sV443
p3624
Vsmsller
p3625
sV442
p3626
Vmarroon
p3627
sV441
p3628
Venters
p3629
sV440
p3630
Vprevious
p3631
sV447
p3632
Vapears
p3633
sV446
p3634
Vhad
p3635
sV445
p3636
Vphotographer
p3637
sV444
p3638
Vdining
p3639
sV1520
p3640
Vrecycling
p3641
sV1542
p3642
Vgar
p3643
sV1543
p3644
Vgap
p3645
sV39
p3646
Vblue
p3647
sV38
p3648
V4x4
p3649
sV1540
p3650
Vfarside
p3651
sV33
p3652
Vdirect
p3653
sV32
p3654
Vtired
p3655
sV31
p3656
Vspeck
p3657
sV30
p3658
Vbicycle
p3659
sV37
p3660
Vdissapeared
p3661
sV36
p3662
Vstreet
p3663
sV35
p3664
Vsecond
p3665
sV34
p3666
Vsurrounding
p3667
sV641
p3668
Vthre
p3669
sV640
p3670
Vworking
p3671
sV643
p3672
Vopposed
p3673
sV642
p3674
Vsports
p3675
sV645
p3676
Vthru
p3677
sV644
p3678
Vanumore
p3679
sV647
p3680
Ventrance
p3681
sV1246
p3682
Vcontains
p3683
sV649
p3684
Vapparent
p3685
sV1248
p3686
Vtwp
p3687
sV1539
p3688
Vfire
p3689
sV1538
p3690
Vpassengers
p3691
sV339
p3692
Vunable
p3693
sV338
p3694
Vshirted
p3695
sV335
p3696
Vsubject
p3697
sV334
p3698
Vledge
p3699
sV337
p3700
Vaway
p3701
sV336
p3702
Vlots
p3703
sV331
p3704
Vobserved
p3705
sV330
p3706
Vobserver
p3707
sV333
p3708
Vresult
p3709
sV332
p3710
Vdecided
p3711
sV1026
p3712
Vread
p3713
sV2118
p3714
Vunlike
p3715
sV8
Vassembled
p3716
sV2119
p3717
Vappearance
p3718
sV1462
p3719
Vhis
p3720
sV1991
p3721
Vneer
p3722
sV1889
p3723
Vincluding
p3724
sV1888
p3725
Vmeter
p3726
sV1887
p3727
Vgarl
p3728
sV1886
p3729
Vmove
p3730
sV1885
p3731
Vheater
p3732
sV1884
p3733
Vbins
p3734
sV1883
p3735
Vlined
p3736
sV1882
p3737
Vsidealk
p3738
sV1881
p3739
Vminivan
p3740
sV1880
p3741
Vhonestly
p3742
sV2121
p3743
Valmost
p3744
sV2120
p3745
Vtshirt
p3746
sV2123
p3747
Vcompleted
p3748
sV2122
p3749
Vwalks
p3750
sV2125
p3751
Vvs
p3752
sV2124
p3753
Vsite
p3754
sV948
p3755
Vstraighter
p3756
sV949
p3757
Vcasr
p3758
sV946
p3759
Vpreson
p3760
sV947
p3761
Vhandicapped
p3762
sV944
p3763
Vthese
p3764
sV945
p3765
Vrunnig
p3766
sV942
p3767
Vbeteween
p3768
sV943
p3769
Vdisapeared
p3770
sV940
p3771
Vthose
p3772
sV941
p3773
Vcase
p3774
sV133
p3775
Vreplacing
p3776
sV132
p3777
Vbriefcase
p3778
sV131
p3779
Vlan
p3780
sV130
p3781
Vgate
p3782
sV137
p3783
Vjumping
p3784
sV136
p3785
Vwrong
p3786
sV135
p3787
Vafter
p3788
sV134
p3789
Vladder
p3790
sV139
p3791
Vlaw
p3792
sV138
p3793
Vlay
p3794
sV2019
p3795
Vcellphone
p3796
sV2018
p3797
Vsocializing
p3798
sV2015
p3799
Vhilltop
p3800
sV2014
p3801
Veight
p3802
sV2017
p3803
Vpayment
p3804
sV2016
p3805
Vsedan
p3806
sV2011
p3807
Vwho
p3808
sV2010
p3809
Voject
p3810
sV2013
p3811
Vparkinglot
p3812
sV2012
p3813
Vcamper
p3814
sV1793
p3815
Vbicycles
p3816
sV2112
p3817
Vfinished
p3818
sV708
p3819
Vpointed
p3820
sV709
p3821
Vdisplayed
p3822
sV704
p3823
Vshilver
p3824
sV705
p3825
Vgesture
p3826
sV706
p3827
Vaforementioned
p3828
sV707
p3829
Ventryway
p3830
sV700
p3831
Vso
p3832
sV701
p3833
Vafrican
p3834
sV702
p3835
Vtall
p3836
sV703
p3837
Vpulled
p3838
sV88
p3839
Vfemales
p3840
sV89
p3841
Vbrings
p3842
sV82
p3843
Vtherefore
p3844
sV83
p3845
Vcentre
p3846
sV80
p3847
Vhtere
p3848
sV81
p3849
Vcall
p3850
sV86
p3851
Vuntil
p3852
sV87
p3853
Vseparated
p3854
sV84
p3855
Vparkin
p3856
sV85
p3857
Vtype
p3858
sV1658
p3859
Vgarbage
p3860
sV1659
p3861
Valiens
p3862
sV1652
p3863
Vhumamns
p3864
sV1388
p3865
V5th
p3866
sV1650
p3867
Vplaza
p3868
sV1651
p3869
Vstraightened
p3870
sV1656
p3871
Vblock
p3872
sV1657
p3873
Vseeing
p3874
sV1654
p3875
Vrange
p3876
sV1389
p3877
Vleast
p3878
sV586
p3879
Vmarks
p3880
sV587
p3881
Vveh
p3882
sV584
p3883
Vrightmost
p3884
sV585
p3885
Vstepstool
p3886
sV582
p3887
Vfather
p3888
sV583
p3889
V0
sV580
p3890
Vzone
p3891
sV581
p3892
Vgraph
p3893
sV1984
p3894
Vbehinds
p3895
sV588
p3896
Vbrown
p3897
sV589
p3898
Vautomobiles
p3899
sV1633
p3900
Vleftmost
p3901
sV1982
p3902
Vsteel
p3903
sV1983
p3904
Vphotograph
p3905
sV1436
p3906
Vmost
p3907
sV1437
p3908
Vbafore
p3909
sV1434
p3910
Velectric
p3911
sV1435
p3912
Vreach
p3913
sV1432
p3914
Voffscreen
p3915
sV1433
p3916
Vtowards
p3917
sV1430
p3918
Valso
p3919
sV1431
p3920
Vapproching
p3921
sV1380
p3922
Vtraveled
p3923
sV1981
p3924
Vreverses
p3925
sV1438
p3926
Vnothing
p3927
sV1381
p3928
Vfeet
p3929
sV1349
p3930
Vhill
p3931
sV1541
p3932
Vwheeler
p3933
sV1348
p3934
Vsafety
p3935
sV459
p3936
Vpossibly
p3937
sV450
p3938
Vhas
p3939
sV451
p3940
Vhat
p3941
sV452
p3942
Vhav
p3943
sV1343
p3944
Vfist
p3945
sV1344
p3946
Vbeyond
p3947
sV1345
p3948
Vflower
p3949
sV456
p3950
Vprogressed
p3951
sV457
p3952
Vpossible
p3953
sV656
p3954
Vcap
p3955
sV657
p3956
Vcat
p3957
sV654
p3958
Vcar
p3959
sV655
p3960
Voriginally
p3961
sV652
p3962
Vheadd
p3963
sV653
p3964
Vgatherd
p3965
sV650
p3966
Vcases
p3967
sV651
p3968
Venclosed
p3969
sV1508
p3970
Vboth
p3971
sV1509
p3972
Vc
sV658
p3973
Vlabeled
p3974
sV516
p3975
Vway
p3976
sV1992
p3977
Vgentle
p3978
sV2127
p3979
Vave
p3980
sV2126
p3981
Vclosets
p3982
sV2129
p3983
Vinf
p3984
sV2128
p3985
Vsits
p3986
sV1376
p3987
Vreversing
p3988
sV322
p3989
Vpatch
p3990
sV323
p3991
Vbag
p3992
sV320
p3993
Vbar
p3994
sV321
p3995
Vsligtly
p3996
sV326
p3997
Vfarther
p3998
sV327
p3999
Vbleu
p4000
sV324
p4001
Vtraversed
p4002
sV325
p4003
Vban
p4004
sV328
p4005
Vpople
p4006
sV329
p4007
Videnticle
p4008
sV1340
p4009
Vpositioned
p4010
sV1594
p4011
Vcut
p4012
sV1341
p4013
Vextended
p4014
sV1995
p4015
Vhave
p4016
sV1592
p4017
Valignment
p4018
sV1598
p4019
Vlocation
p4020
sV2248
p4021
Vbus
p4022
sV2249
p4023
Vtriangular
p4024
sV2244
p4025
Vbuy
p4026
sV2245
p4027
Vnorth
p4028
sV2246
p4029
Vchatting
p4030
sV2247
p4031
Vturquiose
p4032
sV2240
p4033
Vpictue
p4034
sV2241
p4035
Vinner
p4036
sV2242
p4037
Vvar
p4038
sV2243
p4039
Vivory
p4040
sV995
p4041
Vvacant
p4042
sV994
p4043
Vsideways
p4044
sV997
p4045
Vwithout
p4046
sV996
p4047
Vroughly
p4048
sV991
p4049
Vdrain
p4050
sV990
p4051
Valltogether
p4052
sV993
p4053
Vtthe
p4054
sV992
p4055
Vtheater
p4056
sV999
p4057
Vtaxi
p4058
sV998
p4059
Vbodies
p4060
sV120
p4061
Vadvancing
p4062
sV121
p4063
Vhod
p4064
sV122
p4065
Vend
p4066
sV123
p4067
Vthing
p4068
sV124
p4069
Vtravel
p4070
sV125
p4071
Vreturning
p4072
sV126
p4073
Vfeature
p4074
sV127
p4075
Vstroe
p4076
sV128
p4077
Vfar
p4078
sV129
p4079
Vadjacent
p4080
sV2068
p4081
Vpacked
p4082
sV2069
p4083
Vcloser
p4084
sV2060
p4085
Vspotted
p4086
sV2061
p4087
Vfarthest
p4088
sV2062
p4089
Vpuddle
p4090
sV2063
p4091
Vterrain
p4092
sV2064
p4093
Vwe
p4094
sV2065
p4095
Vdiffers
p4096
sV2066
p4097
Vdriveway
p4098
sV2067
p4099
Vframs
p4100
sV1748
p4101
Vhuddled
p4102
sV1749
p4103
Vputting
p4104
sV1645
p4105
Vby
p4106
sV1644
p4107
Vobscured
p4108
sV1647
p4109
Vmingled
p4110
sV1646
p4111
Vpostions
p4112
sV1641
p4113
Vstep
p4114
sV1640
p4115
Vpresetnt
p4116
sV1643
p4117
Vfeild
p4118
sV1642
p4119
Vamberlaw
p4120
sV1649
p4121
Vportico
p4122
sV1648
p4123
Vanything
p4124
sV1742
p4125
Vmower
p4126
sV1743
p4127
Vshack
p4128
sV579
p4129
Vsomthing
p4130
sV578
p4131
Vrow
p4132
sV573
p4133
Vskate
p4134
sV572
p4135
Vfocus
p4136
sV571
p4137
Vswitched
p4138
sV570
p4139
Vcoach
p4140
sV577
p4141
Vchair
p4142
sV576
p4143
Vspaced
p4144
sV575
p4145
Vbicylist
p4146
sV574
p4147
Vpeole
p4148
sV1209
p4149
Vsection
p4150
sV1208
p4151
Vsun
p4152
sV1421
p4153
Valongside
p4154
sV1420
p4155
Vwasnt
p4156
sV1423
p4157
Valike
p4158
sV1422
p4159
Vpedestrian
p4160
sV1425
p4161
Vpaths
p4162
sV1424
p4163
Vlid
p4164
sV1427
p4165
Vbuilt
p4166
sV1426
p4167
Vspeaking
p4168
sV1429
p4169
Vlit
p4170
sV1428
p4171
Vstiars
p4172
sV2156
p4173
Vawning
p4174
sV731
p4175
Vnot
p4176
sV730
p4177
Vhalf
p4178
sV733
p4179
Vnor
p4180
sV732
p4181
Vnow
p4182
sV735
p4183
Vdidn
p4184
sV734
p4185
Vwagon
p4186
sV737
p4187
Ventirely
p4188
sV736
p4189
Varrows
p4190
sV739
p4191
Vavailble
p4192
sV738
p4193
Vquarter
p4194
sV1359
p4195
Vmembers
p4196
sV1358
p4197
Vbase
p4198
sV469
p4199
Vvis
p4200
sV468
p4201
Vappearing
p4202
sV1353
p4203
Vforeground
p4204
sV1352
p4205
Vhighway
p4206
sV1351
p4207
Vwalkingby
p4208
sV1350
p4209
V7
sV461
p4210
Vdescending
p4211
sV1356
p4212
Vstory
p4213
sV463
p4214
Vclustered
p4215
sV462
p4216
Vbackground
p4217
sV1273
p4218
Vdress
p4219
sV2158
p4220
Vbending
p4221
sV2159
p4222
Vless
p4223
sV1519
p4224
Vloan
p4225
sV1518
p4226
Vbridge
p4227
sV1515
p4228
Vcollection
p4229
sV1514
p4230
Vles
p4231
sV1517
p4232
Vstoplight
p4233
sV1516
p4234
Vwhole
p4235
sV1274
p4236
Vhwere
p4237
sV1510
p4238
Vlass
p4239
sV1513
p4240
Vbarely
p4241
sV1512
p4242
Vreverse
p4243
sV1735
p4244
Vgroceries
p4245
sV1275
p4246
Vinformation
p4247
sV357
p4248
Vappeared
p4249
sV356
p4250
Vpresumably
p4251
sV355
p4252
Vdisappears
p4253
sV354
p4254
Vstopsign
p4255
sV353
p4256
Vagainst
p4257
sV352
p4258
Vmaneuvers
p4259
sV351
p4260
Vroller
p4261
sV350
p4262
Vpackages
p4263
sV359
p4264
Vgathering
p4265
sV358
p4266
Vstndingin
p4267
sV1447
p4268
Vparticularly
p4269
sV1446
p4270
Vhips
p4271
sV1445
p4272
Vbulletin
p4273
sV289
p4274
Vemiddle
p4275
sV288
p4276
Vdog
p4277
sV1444
p4278
Vbarrel
p4279
sV281
p4280
Vletter
p4281
sV280
p4282
Vpreset
p4283
sV283
p4284
Vparting
p4285
sV282
p4286
Vdeffernart
p4287
sV285
p4288
Vwailking
p4289
sV284
p4290
Vdon
p4291
sV287
p4292
Vmetal
p4293
sV286
p4294
Vhandcart
p4295
sV1441
p4296
Vinto
p4297
sV1116
p4298
Vsuitcase
p4299
sV263
p4300
Vcontents
p4301
sV262
p4302
Vseem
p4303
sV261
p4304
Vseen
p4305
sV260
p4306
Vstalls
p4307
sV267
p4308
Visolated
p4309
sV266
p4310
Vlatter
p4311
sV265
p4312
Vsumbrellas
p4313
sV264
p4314
Vperson
p4315
sV269
p4316
Vmetallic
p4317
sV268
p4318
Vthorough
p4319
sV1562
p4320
Vitself
p4321
sV1563
p4322
Vready
p4323
sV1980
p4324
Vherself
p4325
sV1564
p4326
Vforeword
p4327
sV2192
p4328
Vpage
p4329
sV1565
p4330
Vfunny
p4331
sV2193
p4332
Vexisiting
p4333
sV1566
p4334
Vrighthand
p4335
sV2259
p4336
Vmade
p4337
sV2258
p4338
Vcount
p4339
sV2257
p4340
Vpartially
p4341
sV2256
p4342
Vbug
p4343
sV2255
p4344
Vha
p4345
sV1567
p4346
Vshirt
p4347
sV2253
p4348
Vconstruction
p4349
sV2252
p4350
Vlandscaping
p4351
sV2251
p4352
Vdelivery
p4353
sV2250
p4354
Vbut
p4355
sV988
p4356
Vtotally
p4357
sV989
p4358
Vcanopy
p4359
sV982
p4360
Vpersons
p4361
sV983
p4362
Vrunning
p4363
sV980
p4364
Vcompanion
p4365
sV981
p4366
Vdriven
p4367
sV986
p4368
Vclimbing
p4369
sV987
p4370
Vdiscernable
p4371
sV984
p4372
Vpersonw
p4373
sV985
p4374
Vstairwell
p4375
sV115
p4376
Vbuliding
p4377
sV114
p4378
Vsurveyor
p4379
sV117
p4380
Vdrivinng
p4381
sV116
p4382
Vriing
p4383
sV111
p4384
Vdividers
p4385
sV110
p4386
Vdiminished
p4387
sV113
p4388
Vbothe
p4389
sV112
p4390
Vfloor
p4391
sV119
p4392
V2ndpic
p4393
sV118
p4394
Vtthere
p4395
sV1797
p4396
Vthats
p4397
sV2079
p4398
Vblinker
p4399
sV2078
p4400
Vpants
p4401
sV2073
p4402
Vbaricades
p4403
sV2072
p4404
Vpattern
p4405
sV2071
p4406
Vattempting
p4407
sV2070
p4408
Vcloses
p4409
sV2077
p4410
Vneither
p4411
sV2076
p4412
Vprogress
p4413
sV2075
p4414
Vclosed
p4415
sV2074
p4416
Vproof
p4417
sV1796
p4418
Vshaded
p4419
sV1630
p4420
Vvisiable
p4421
sV1631
p4422
Vslgihtly
p4423
sV1632
p4424
Vper
p4425
sV484
p4426
Vspoted
p4427
sV1634
p4428
Vt
sV1635
p4429
Vbe
p4430
sV1636
p4431
Vreplaced
p4432
sV1637
p4433
Veating
p4434
sV1638
p4435
Vcontinuing
p4436
sV1639
p4437
Vperpendicular
p4438
sV1988
p4439
Vbet
p4440
sV1989
p4441
Vviewer
p4442
sV568
p4443
Vwakling
p4444
sV569
p4445
Vbackward
p4446
sV560
p4447
Vhappening
p4448
sV561
p4449
Vglass
p4450
sV562
p4451
Vpaces
p4452
sV563
p4453
Vryder
p4454
sV564
p4455
Vtogether
p4456
sV565
p4457
Vjacket
p4458
sV566
p4459
Vcarts
p4460
sV567
p4461
Vtime
p4462
sV1188
p4463
Vjoined
p4464
sV1189
p4465
Vlarge
p4466
sV1186
p4467
Vforth
p4468
sV1187
p4469
Vlaying
p4470
sV1184
p4471
Vdifference
p4472
sV1185
p4473
Vsegway
p4474
sV1182
p4475
Vfan
p4476
sV1183
p4477
Vpersosn
p4478
sV1180
p4479
Vcoloured
p4480
sV1181
p4481
Vblockade
p4482
sV726
p4483
Vtucked
p4484
sV727
p4485
Vunderneath
p4486
sV724
p4487
Vmeridian
p4488
sV725
p4489
Vnon
p4490
sV722
p4491
Veroad
p4492
sV723
p4493
Vmain
p4494
sV720
p4495
Vwindow
p4496
sV721
p4497
Vdecreased
p4498
sV1744
p4499
Vgravel
p4500
sV1745
p4501
Vrelocated
p4502
sV1746
p4503
Vrandom
p4504
sV1747
p4505
Vcontinues
p4506
sV1740
p4507
Vcruiser
p4508
sV1741
p4509
Vyoung
p4510
sV728
p4511
Vtouching
p4512
sV729
p4513
Vdiviting
p4514
sV1164
p4515
Vmaxima
p4516
sV1165
p4517
Vchildren
p4518
sV1166
p4519
Vapartment
p4520
sV1167
p4521
Vnears
p4522
sV1160
p4523
Vdiscernible
p4524
sV1161
p4525
Vcaused
p4526
sV1162
p4527
Vwalkng
p4528
sV1163
p4529
Vsplitting
p4530
sV1168
p4531
Vto
p4532
sV1169
p4533
Vtail
p4534
sV472
p4535
Vlapsed
p4536
sV48
p4537
Vasis
p4538
sV49
p4539
Vlert
p4540
sV46
p4541
Vnew
p4542
sV47
p4543
Vnet
p4544
sV44
p4545
Vabove
p4546
sV45
p4547
Vblur
p4548
sV42
p4549
Vlights
p4550
sV43
p4551
Vlightp
p4552
sV40
p4553
Vdiiferent
p4554
sV41
p4555
Vnear
p4556
sV1568
p4557
Vanymore
p4558
sV1569
p4559
Vshorter
p4560
sV1298
p4561
Vpatio
p4562
sV1299
p4563
Vtrough
p4564
sV1292
p4565
Vdeserted
p4566
sV1293
p4567
Vshade
p4568
sV1290
p4569
Vcoat
p4570
sV1291
p4571
Vhauling
p4572
sV1296
p4573
Vdispersing
p4574
sV1297
p4575
Vplaying
p4576
sV1294
p4577
Vmansplaining
p4578
sV1295
p4579
Vinline
p4580
sV1713
p4581
Vdiffferent
p4582
sV474
p4583
Vsteps
p4584
sV1712
p4585
Vsided
p4586
sV475
p4587
Vofficer
p4588
sV1711
p4589
Vpotion
p4590
sV1710
p4591
Vmissig
p4592
sV1717
p4593
Vsides
p4594
sV1716
p4595
Vposters
p4596
sV1715
p4597
Vmeaning
p4598
sV1201
p4599
Vfurther
p4600
sV1714
p4601
Vhelping
p4602
sV1366
p4603
Vbushes
p4604
sV473
p4605
Vpavement
p4606
sV1364
p4607
Vguy
p4608
sV1365
p4609
Vhydrant
p4610
sV1362
p4611
Vheads
p4612
sV1363
p4613
Vbeginning
p4614
sV1360
p4615
Vimagine
p4616
sV1361
p4617
Vbacked
p4618
sV478
p4619
Vright
p4620
sV479
p4621
Vold
p4622
sV1368
p4623
Vcarss
p4624
sV1369
p4625
Vtaht
p4626
ssS'best_val_score'
p4627
F-2.4697676364916279
sS'iter'
p4628
I24000
sS'iterators'
p4629
(dp4630
S'test'
p4631
I0
sS'train'
p4632
I1900
sS'val'
p4633
I6
ssS'epoch'
p4634
I25
sS'split_ix'
p4635
(dp4636
g4631
(lp4637
I9524
aI9525
aI9526
aI9527
aI9528
aI9529
aI9530
aI9531
aI9532
aI9533
aI9534
aI9535
aI9536
aI9537
aI9538
aI9539
aI9540
aI9541
aI9542
aI9543
aI9544
aI9545
aI9546
aI9547
aI9548
aI9549
aI9550
aI9551
aI9552
aI9553
aI9554
aI9555
aI9556
aI9557
aI9558
aI9559
aI9560
aI9561
aI9562
aI9563
aI9564
aI9565
aI9566
aI9567
aI9568
aI9569
aI9570
aI9571
aI9572
aI9573
aI9574
aI9575
aI9576
aI9577
aI9578
aI9579
aI9580
aI9581
aI9582
aI9583
aI9584
aI9585
aI9586
aI9587
aI9588
aI9589
aI9590
aI9591
aI9592
aI9593
aI9594
aI9595
aI9596
aI9597
aI9598
aI9599
aI9600
aI9601
aI9602
aI9603
aI9604
aI9605
aI9606
aI9607
aI9608
aI9609
aI9610
aI9611
aI9612
aI9613
aI9614
aI9615
aI9616
aI9617
aI9618
aI9619
aI9620
aI9621
aI9622
aI9623
aI9624
aI9625
aI9626
aI9627
aI9628
aI9629
aI9630
aI9631
aI9632
aI9633
aI9634
aI9635
aI9636
aI9637
aI9638
aI9639
aI9640
aI9641
aI9642
aI9643
aI9644
aI9645
aI9646
aI9647
aI9648
aI9649
aI9650
aI9651
aI9652
aI9653
aI9654
aI9655
aI9656
aI9657
aI9658
aI9659
aI9660
aI9661
aI9662
aI9663
aI9664
aI9665
aI9666
aI9667
aI9668
aI9669
aI9670
aI9671
aI9672
aI9673
aI9674
aI9675
aI9676
aI9677
aI9678
aI9679
aI9680
aI9681
aI9682
aI9683
aI9684
aI9685
aI9686
aI9687
aI9688
aI9689
aI9690
aI9691
aI9692
aI9693
aI9694
aI9695
aI9696
aI9697
aI9698
aI9699
aI9700
aI9701
aI9702
aI9703
aI9704
aI9705
aI9706
aI9707
aI9708
aI9709
aI9710
aI9711
aI9712
aI9713
aI9714
aI9715
aI9716
aI9717
aI9718
aI9719
aI9720
aI9721
aI9722
aI9723
aI9724
aI9725
aI9726
aI9727
aI9728
aI9729
aI9730
aI9731
aI9732
aI9733
aI9734
aI9735
aI9736
aI9737
aI9738
aI9739
aI9740
aI9741
aI9742
aI9743
aI9744
aI9745
aI9746
aI9747
aI9748
aI9749
aI9750
aI9751
aI9752
aI9753
aI9754
aI9755
aI9756
aI9757
aI9758
aI9759
aI9760
aI9761
aI9762
aI9763
aI9764
aI9765
aI9766
aI9767
aI9768
aI9769
aI9770
aI9771
aI9772
aI9773
aI9774
aI9775
aI9776
aI9777
aI9778
aI9779
aI9780
aI9781
aI9782
aI9783
aI9784
aI9785
aI9786
aI9787
aI9788
aI9789
aI9790
aI9791
aI9792
aI9793
aI9794
aI9795
aI9796
aI9797
aI9798
aI9799
aI9800
aI9801
aI9802
aI9803
aI9804
aI9805
aI9806
aI9807
aI9808
aI9809
aI9810
aI9811
aI9812
aI9813
aI9814
aI9815
aI9816
aI9817
aI9818
aI9819
aI9820
aI9821
aI9822
aI9823
aI9824
aI9825
aI9826
aI9827
aI9828
aI9829
aI9830
aI9831
aI9832
aI9833
aI9834
aI9835
aI9836
aI9837
aI9838
aI9839
aI9840
aI9841
aI9842
aI9843
aI9844
aI9845
aI9846
aI9847
aI9848
aI9849
aI9850
aI9851
aI9852
aI9853
aI9854
aI9855
aI9856
aI9857
aI9858
aI9859
aI9860
aI9861
aI9862
aI9863
aI9864
aI9865
aI9866
aI9867
aI9868
aI9869
aI9870
aI9871
aI9872
aI9873
aI9874
aI9875
aI9876
aI9877
aI9878
aI9879
aI9880
aI9881
aI9882
aI9883
aI9884
aI9885
aI9886
aI9887
aI9888
aI9889
aI9890
aI9891
aI9892
aI9893
aI9894
aI9895
aI9896
aI9897
aI9898
aI9899
aI9900
aI9901
aI9902
aI9903
aI9904
aI9905
aI9906
aI9907
aI9908
aI9909
aI9910
aI9911
aI9912
aI9913
aI9914
aI9915
aI9916
aI9917
aI9918
aI9919
aI9920
aI9921
aI9922
aI9923
aI9924
aI9925
aI9926
aI9927
aI9928
aI9929
aI9930
aI9931
aI9932
aI9933
aI9934
aI9935
aI9936
aI9937
aI9938
aI9939
aI9940
aI9941
aI9942
aI9943
aI9944
aI9945
aI9946
aI9947
aI9948
aI9949
aI9950
aI9951
aI9952
aI9953
aI9954
aI9955
aI9956
aI9957
aI9958
aI9959
aI9960
aI9961
aI9962
aI9963
aI9964
aI9965
aI9966
aI9967
aI9968
aI9969
aI9970
aI9971
aI9972
aI9973
aI9974
aI9975
aI9976
aI9977
aI9978
aI9979
aI9980
aI9981
aI9982
aI9983
aI9984
aI9985
aI9986
aI9987
aI9988
aI9989
aI9990
aI9991
aI9992
aI9993
aI9994
aI9995
aI9996
aI9997
aI9998
aI9999
aI10000
aI10001
aI10002
aI10003
aI10004
aI10005
aI10006
aI10007
aI10008
aI10009
aI10010
aI10011
aI10012
aI10013
aI10014
aI10015
aI10016
aI10017
aI10018
aI10019
aI10020
aI10021
aI10022
aI10023
aI10024
aI10025
aI10026
aI10027
aI10028
aI10029
aI10030
aI10031
aI10032
aI10033
aI10034
aI10035
aI10036
aI10037
aI10038
aI10039
aI10040
aI10041
aI10042
aI10043
aI10044
aI10045
aI10046
aI10047
aI10048
aI10049
aI10050
aI10051
aI10052
aI10053
aI10054
aI10055
aI10056
aI10057
aI10058
aI10059
aI10060
aI10061
aI10062
aI10063
aI10064
aI10065
aI10066
aI10067
aI10068
aI10069
aI10070
aI10071
aI10072
aI10073
aI10074
aI10075
aI10076
aI10077
aI10078
aI10079
aI10080
aI10081
aI10082
aI10083
aI10084
aI10085
aI10086
aI10087
aI10088
aI10089
aI10090
aI10091
aI10092
aI10093
aI10094
aI10095
aI10096
aI10097
aI10098
aI10099
aI10100
aI10101
aI10102
aI10103
aI10104
aI10105
aI10106
aI10107
aI10108
aI10109
aI10110
aI10111
aI10112
aI10113
aI10114
aI10115
aI10116
aI10117
aI10118
aI10119
aI10120
aI10121
aI10122
aI10123
aI10124
aI10125
aI10126
aI10127
aI10128
aI10129
aI10130
aI10131
aI10132
aI10133
aI10134
aI10135
aI10136
aI10137
aI10138
aI10139
aI10140
aI10141
aI10142
aI10143
aI10144
aI10145
aI10146
aI10147
aI10148
aI10149
aI10150
aI10151
aI10152
aI10153
aI10154
aI10155
aI10156
aI10157
aI10158
aI10159
aI10160
aI10161
aI10162
aI10163
aI10164
aI10165
aI10166
aI10167
aI10168
aI10169
aI10170
aI10171
aI10172
aI10173
aI10174
aI10175
aI10176
aI10177
aI10178
aI10179
aI10180
aI10181
aI10182
aI10183
aI10184
aI10185
aI10186
aI10187
aI10188
aI10189
aI10190
aI10191
aI10192
aI10193
aI10194
aI10195
aI10196
aI10197
aI10198
aI10199
aI10200
aI10201
aI10202
aI10203
aI10204
aI10205
aI10206
aI10207
aI10208
aI10209
aI10210
aI10211
aI10212
aI10213
aI10214
aI10215
aI10216
aI10217
aI10218
aI10219
aI10220
aI10221
aI10222
aI10223
aI10224
aI10225
aI10226
aI10227
aI10228
aI10229
aI10230
aI10231
aI10232
aI10233
aI10234
aI10235
aI10236
aI10237
aI10238
aI10239
aI10240
aI10241
aI10242
aI10243
aI10244
aI10245
aI10246
aI10247
aI10248
aI10249
aI10250
aI10251
aI10252
aI10253
aI10254
aI10255
aI10256
aI10257
aI10258
aI10259
aI10260
aI10261
aI10262
aI10263
aI10264
aI10265
aI10266
aI10267
aI10268
aI10269
aI10270
aI10271
aI10272
aI10273
aI10274
aI10275
aI10276
aI10277
aI10278
aI10279
aI10280
aI10281
aI10282
aI10283
aI10284
aI10285
aI10286
aI10287
aI10288
aI10289
aI10290
aI10291
aI10292
aI10293
aI10294
aI10295
aI10296
aI10297
aI10298
aI10299
aI10300
aI10301
aI10302
aI10303
aI10304
aI10305
aI10306
aI10307
aI10308
aI10309
aI10310
aI10311
aI10312
aI10313
aI10314
aI10315
aI10316
aI10317
aI10318
aI10319
aI10320
aI10321
aI10322
aI10323
aI10324
aI10325
aI10326
aI10327
aI10328
aI10329
aI10330
aI10331
aI10332
aI10333
aI10334
aI10335
aI10336
aI10337
aI10338
aI10339
aI10340
aI10341
aI10342
aI10343
aI10344
aI10345
aI10346
aI10347
aI10348
aI10349
aI10350
aI10351
aI10352
aI10353
aI10354
aI10355
aI10356
aI10357
aI10358
aI10359
aI10360
aI10361
aI10362
aI10363
aI10364
aI10365
aI10366
aI10367
aI10368
aI10369
aI10370
aI10371
aI10372
aI10373
aI10374
aI10375
aI10376
aI10377
aI10378
aI10379
aI10380
aI10381
aI10382
aI10383
aI10384
aI10385
aI10386
aI10387
aI10388
aI10389
aI10390
aI10391
aI10392
aI10393
aI10394
aI10395
aI10396
aI10397
aI10398
aI10399
aI10400
aI10401
aI10402
aI10403
aI10404
aI10405
aI10406
aI10407
aI10408
aI10409
aI10410
aI10411
aI10412
aI10413
aI10414
aI10415
aI10416
aI10417
aI10418
aI10419
aI10420
aI10421
aI10422
aI10423
aI10424
aI10425
aI10426
aI10427
aI10428
aI10429
aI10430
aI10431
aI10432
aI10433
aI10434
aI10435
aI10436
aI10437
aI10438
aI10439
aI10440
aI10441
aI10442
aI10443
aI10444
aI10445
aI10446
aI10447
aI10448
aI10449
aI10450
aI10451
aI10452
aI10453
aI10454
aI10455
aI10456
aI10457
aI10458
aI10459
aI10460
aI10461
aI10462
aI10463
aI10464
aI10465
aI10466
aI10467
aI10468
aI10469
aI10470
aI10471
aI10472
aI10473
aI10474
aI10475
aI10476
aI10477
aI10478
aI10479
aI10480
aI10481
aI10482
aI10483
aI10484
aI10485
aI10486
aI10487
aI10488
aI10489
aI10490
aI10491
aI10492
aI10493
aI10494
aI10495
aI10496
aI10497
aI10498
aI10499
aI10500
aI10501
aI10502
aI10503
aI10504
aI10505
aI10506
aI10507
aI10508
aI10509
aI10510
aI10511
aI10512
aI10513
aI10514
aI10515
aI10516
aI10517
aI10518
aI10519
aI10520
aI10521
aI10522
aI10523
aI10524
aI10525
aI10526
aI10527
aI10528
aI10529
aI10530
aI10531
aI10532
aI10533
aI10534
aI10535
aI10536
aI10537
aI10538
aI10539
aI10540
aI10541
aI10542
aI10543
aI10544
aI10545
aI10546
aI10547
aI10548
aI10549
aI10550
aI10551
aI10552
aI10553
aI10554
aI10555
aI10556
aI10557
aI10558
aI10559
aI10560
aI10561
aI10562
aI10563
aI10564
aI10565
aI10566
aI10567
aI10568
aI10569
aI10570
aI10571
aI10572
aI10573
aI10574
aI10575
aI10576
aI10577
aI10578
aI10579
aI10580
aI10581
aI10582
aI10583
aI10584
aI10585
aI10586
aI10587
aI10588
aI10589
aI10590
aI10591
aI10592
aI10593
aI10594
aI10595
aI10596
aI10597
aI10598
aI10599
aI10600
aI10601
aI10602
aI10603
aI10604
aI10605
aI10606
aI10607
aI10608
aI10609
aI10610
aI10611
aI10612
aI10613
aI10614
aI10615
aI10616
aI10617
aI10618
aI10619
aI10620
aI10621
aI10622
aI10623
aI10624
aI10625
aI10626
aI10627
aI10628
aI10629
aI10630
aI10631
aI10632
aI10633
aI10634
aI10635
aI10636
aI10637
aI10638
aI10639
aI10640
aI10641
aI10642
aI10643
aI10644
aI10645
aI10646
aI10647
aI10648
aI10649
aI10650
aI10651
aI10652
aI10653
aI10654
aI10655
aI10656
aI10657
aI10658
aI10659
aI10660
aI10661
aI10662
aI10663
aI10664
aI10665
aI10666
aI10667
aI10668
aI10669
aI10670
aI10671
aI10672
aI10673
aI10674
aI10675
aI10676
aI10677
aI10678
aI10679
aI10680
aI10681
aI10682
aI10683
aI10684
aI10685
aI10686
aI10687
aI10688
aI10689
aI10690
aI10691
aI10692
aI10693
aI10694
aI10695
aI10696
aI10697
aI10698
aI10699
aI10700
aI10701
aI10702
aI10703
aI10704
aI10705
aI10706
aI10707
aI10708
aI10709
aI10710
aI10711
aI10712
aI10713
aI10714
aI10715
aI10716
aI10717
aI10718
aI10719
aI10720
aI10721
aI10722
aI10723
aI10724
aI10725
aI10726
aI10727
aI10728
aI10729
aI10730
aI10731
aI10732
aI10733
aI10734
aI10735
aI10736
aI10737
aI10738
aI10739
aI10740
aI10741
aI10742
aI10743
aI10744
aI10745
aI10746
aI10747
aI10748
aI10749
aI10750
aI10751
aI10752
aI10753
aI10754
aI10755
aI10756
aI10757
aI10758
aI10759
aI10760
aI10761
aI10762
aI10763
aI10764
aI10765
aI10766
aI10767
aI10768
aI10769
aI10770
aI10771
aI10772
aI10773
aI10774
aI10775
aI10776
aI10777
aI10778
aI10779
aI10780
aI10781
aI10782
aI10783
aI10784
aI10785
aI10786
aI10787
aI10788
aI10789
aI10790
aI10791
aI10792
aI10793
aI10794
aI10795
aI10796
aI10797
aI10798
aI10799
aI10800
aI10801
aI10802
aI10803
aI10804
aI10805
aI10806
aI10807
aI10808
aI10809
aI10810
aI10811
aI10812
aI10813
aI10814
aI10815
aI10816
aI10817
aI10818
aI10819
aI10820
aI10821
aI10822
aI10823
aI10824
aI10825
aI10826
aI10827
aI10828
aI10829
aI10830
aI10831
aI10832
aI10833
aI10834
aI10835
aI10836
aI10837
aI10838
aI10839
aI10840
aI10841
aI10842
aI10843
aI10844
aI10845
aI10846
aI10847
aI10848
aI10849
aI10850
aI10851
aI10852
aI10853
aI10854
aI10855
aI10856
aI10857
aI10858
aI10859
aI10860
aI10861
aI10862
aI10863
aI10864
aI10865
aI10866
aI10867
aI10868
aI10869
aI10870
aI10871
aI10872
aI10873
aI10874
aI10875
aI10876
aI10877
aI10878
aI10879
aI10880
aI10881
aI10882
aI10883
aI10884
aI10885
aI10886
aI10887
aI10888
aI10889
aI10890
aI10891
aI10892
aI10893
aI10894
aI10895
aI10896
aI10897
aI10898
aI10899
aI10900
aI10901
aI10902
aI10903
aI10904
aI10905
aI10906
aI10907
aI10908
aI10909
aI10910
aI10911
aI10912
aI10913
aI10914
aI10915
aI10916
aI10917
aI10918
aI10919
aI10920
aI10921
aI10922
aI10923
aI10924
aI10925
aI10926
aI10927
asg4632
(lp4638
I3170
aI7262
aI7305
aI2745
aI1042
aI1090
aI3185
aI3067
aI4744
aI1502
aI4984
aI9102
aI8426
aI6174
aI3830
aI4368
aI9200
aI3431
aI4087
aI3811
aI1167
aI3345
aI5570
aI1319
aI380
aI1901
aI1832
aI6942
aI5892
aI881
aI8631
aI3202
aI7029
aI5670
aI7541
aI5129
aI5516
aI2083
aI4640
aI4395
aI2519
aI5380
aI3980
aI6320
aI7512
aI2808
aI3101
aI351
aI1220
aI3589
aI269
aI2791
aI1138
aI6713
aI5187
aI6654
aI4972
aI4935
aI7766
aI5976
aI1481
aI2302
aI8058
aI2763
aI6541
aI9406
aI4526
aI8478
aI6142
aI8679
aI6767
aI8834
aI3656
aI3730
aI6844
aI1503
aI2793
aI4468
aI7351
aI7751
aI2521
aI184
aI6116
aI2151
aI5286
aI1414
aI5839
aI4782
aI882
aI7703
aI526
aI344
aI2737
aI3124
aI7571
aI6653
aI9425
aI1358
aI9077
aI6253
aI7344
aI3318
aI6925
aI3127
aI6412
aI7578
aI1696
aI4176
aI384
aI5623
aI2827
aI5765
aI2855
aI7929
aI4454
aI3152
aI2303
aI30
aI8345
aI6100
aI3925
aI4294
aI3332
aI4160
aI6339
aI5816
aI8697
aI1568
aI9335
aI5071
aI2544
aI5548
aI1201
aI7423
aI342
aI3588
aI4318
aI4772
aI65
aI5348
aI3330
aI9053
aI3810
aI1399
aI6628
aI4693
aI1648
aI3492
aI1767
aI3740
aI7370
aI5990
aI6689
aI7004
aI6050
aI6909
aI6122
aI5188
aI1338
aI4438
aI2449
aI5758
aI2475
aI1326
aI8202
aI3736
aI5462
aI6883
aI7469
aI4908
aI5594
aI2719
aI3666
aI5664
aI487
aI1147
aI654
aI3723
aI4539
aI2992
aI2829
aI1363
aI3975
aI7227
aI7919
aI2010
aI7611
aI2572
aI7197
aI2612
aI3281
aI7843
aI7491
aI1131
aI5494
aI7315
aI8295
aI539
aI3719
aI936
aI7739
aI4929
aI4625
aI5037
aI1507
aI5026
aI821
aI4166
aI6898
aI2490
aI7500
aI7921
aI9310
aI140
aI8016
aI7533
aI843
aI8417
aI7050
aI3253
aI5336
aI8161
aI1606
aI6031
aI6104
aI9394
aI1004
aI558
aI6579
aI5319
aI4830
aI2141
aI2725
aI2129
aI7706
aI3777
aI2555
aI2319
aI5609
aI900
aI3042
aI5059
aI6130
aI1158
aI9261
aI694
aI7321
aI770
aI3384
aI8223
aI6700
aI2898
aI6087
aI4890
aI9318
aI7825
aI1818
aI8724
aI5683
aI5274
aI8166
aI4473
aI2518
aI7624
aI8798
aI3632
aI7266
aI7066
aI208
aI6271
aI2331
aI5678
aI6002
aI5173
aI5353
aI6711
aI6899
aI6269
aI7726
aI7885
aI9331
aI9215
aI1335
aI5330
aI3792
aI8603
aI7332
aI4303
aI6020
aI3675
aI3856
aI8329
aI6537
aI4258
aI3088
aI8147
aI6571
aI5872
aI7607
aI2029
aI7550
aI6736
aI6821
aI7216
aI7077
aI3342
aI178
aI1713
aI5982
aI9133
aI9457
aI3679
aI4964
aI1928
aI9250
aI475
aI5799
aI4057
aI8238
aI3132
aI2670
aI237
aI7348
aI3688
aI508
aI1646
aI4257
aI3100
aI6037
aI8935
aI6941
aI530
aI4230
aI7375
aI7522
aI8222
aI3802
aI3855
aI6217
aI765
aI9376
aI2296
aI3586
aI8469
aI4711
aI8770
aI4578
aI6722
aI4022
aI8180
aI877
aI2522
aI6688
aI6867
aI4118
aI6545
aI1450
aI3732
aI1527
aI2876
aI7033
aI1663
aI7956
aI655
aI7495
aI984
aI5700
aI5349
aI6826
aI4095
aI4273
aI1468
aI5747
aI5404
aI6828
aI7415
aI4075
aI615
aI5002
aI4447
aI8601
aI7639
aI6018
aI1651
aI2361
aI7534
aI4424
aI5795
aI9252
aI3568
aI1480
aI130
aI1446
aI7848
aI360
aI135
aI4752
aI7672
aI3287
aI1842
aI6787
aI3351
aI9412
aI750
aI6389
aI8115
aI4778
aI9342
aI4949
aI70
aI3702
aI4369
aI854
aI3309
aI4046
aI4297
aI5550
aI7446
aI4952
aI3151
aI4632
aI9395
aI9137
aI3958
aI2811
aI5098
aI1169
aI1276
aI1322
aI64
aI4699
aI4779
aI4073
aI1163
aI1078
aI3640
aI6140
aI5484
aI6045
aI1491
aI9070
aI3674
aI7731
aI911
aI6533
aI1570
aI1279
aI6432
aI7035
aI8304
aI7576
aI908
aI440
aI1309
aI7968
aI1551
aI8409
aI5172
aI8972
aI1510
aI3147
aI4131
aI5880
aI6954
aI7335
aI7508
aI2804
aI5276
aI2930
aI5146
aI1208
aI4211
aI7714
aI6180
aI2945
aI6658
aI6949
aI2100
aI3966
aI838
aI7749
aI2949
aI8995
aI7901
aI1808
aI3696
aI6500
aI7838
aI1356
aI6640
aI3970
aI7619
aI5112
aI9178
aI2842
aI31
aI3213
aI3359
aI87
aI1253
aI7255
aI8170
aI8696
aI4193
aI5725
aI1271
aI9049
aI7978
aI5951
aI548
aI1098
aI7209
aI1976
aI2446
aI4769
aI4798
aI1416
aI8355
aI5679
aI2179
aI1532
aI6677
aI6647
aI5020
aI3328
aI8765
aI8890
aI3556
aI3107
aI6494
aI5407
aI4853
aI5807
aI116
aI2759
aI4627
aI6329
aI4074
aI1377
aI7962
aI3347
aI2365
aI7131
aI4060
aI3986
aI7467
aI8199
aI1601
aI2739
aI2818
aI2039
aI367
aI4125
aI4683
aI1948
aI5283
aI9072
aI4034
aI505
aI2680
aI8925
aI5938
aI2997
aI8490
aI4058
aI7268
aI9010
aI9513
aI5731
aI4814
aI897
aI7485
aI9507
aI4219
aI2590
aI2981
aI3106
aI3432
aI8333
aI3522
aI5358
aI5603
aI2883
aI4954
aI6311
aI5803
aI1760
aI2208
aI5941
aI6738
aI8336
aI5359
aI6717
aI5643
aI3496
aI1600
aI4916
aI7462
aI8561
aI2012
aI7031
aI261
aI8978
aI872
aI2024
aI4038
aI5215
aI6652
aI7995
aI3249
aI1706
aI9073
aI25
aI6506
aI4374
aI5042
aI554
aI4701
aI8982
aI2921
aI5728
aI894
aI6783
aI1096
aI1219
aI7652
aI2366
aI1543
aI3313
aI5084
aI5287
aI4705
aI9161
aI3710
aI2146
aI6111
aI1341
aI389
aI6186
aI209
aI1454
aI7820
aI4646
aI8809
aI552
aI549
aI5386
aI5130
aI7372
aI6267
aI8620
aI7030
aI4840
aI2154
aI4559
aI3245
aI5384
aI4721
aI428
aI1914
aI9015
aI5333
aI6505
aI3379
aI2337
aI793
aI8766
aI5044
aI4776
aI5665
aI1869
aI479
aI2654
aI8064
aI2597
aI1880
aI2304
aI4697
aI889
aI7451
aI6331
aI1368
aI2782
aI2591
aI4748
aI2393
aI7409
aI8518
aI3690
aI7290
aI7101
aI2517
aI5340
aI1715
aI2345
aI2007
aI5057
aI7267
aI4126
aI6869
aI4399
aI3780
aI1632
aI8175
aI3483
aI1175
aI5290
aI3902
aI366
aI4696
aI1477
aI7773
aI2674
aI6463
aI5879
aI6542
aI3931
aI8099
aI4901
aI7676
aI9401
aI7139
aI8310
aI4671
aI7104
aI4055
aI4902
aI1212
aI4768
aI4275
aI5398
aI8342
aI9262
aI8942
aI8954
aI2157
aI2990
aI9295
aI225
aI8006
aI567
aI1324
aI8076
aI1423
aI4463
aI8588
aI149
aI5196
aI6932
aI7055
aI2257
aI138
aI2265
aI1187
aI2418
aI6616
aI7794
aI6958
aI7990
aI6237
aI2396
aI994
aI7644
aI5723
aI8455
aI7684
aI5360
aI2989
aI5947
aI8450
aI3438
aI5654
aI9226
aI9017
aI9092
aI3685
aI7636
aI3623
aI330
aI3602
aI6876
aI5142
aI4609
aI5751
aI8051
aI6916
aI6410
aI1492
aI1520
aI952
aI3976
aI5681
aI4079
aI4203
aI9298
aI9177
aI3816
aI4165
aI8188
aI4163
aI3119
aI159
aI7178
aI5292
aI4159
aI7742
aI4200
aI3809
aI7373
aI4995
aI7852
aI5241
aI2284
aI6938
aI6199
aI6241
aI5963
aI4870
aI3511
aI4914
aI4570
aI56
aI6308
aI355
aI3048
aI3657
aI3882
aI3225
aI9034
aI8806
aI3860
aI6266
aI7010
aI2015
aI884
aI1059
aI5106
aI6344
aI1925
aI2339
aI1557
aI4833
aI6706
aI4016
aI5383
aI7564
aI4390
aI6354
aI7296
aI4528
aI7634
aI7170
aI9151
aI6001
aI7340
aI8608
aI9016
aI7276
aI1195
aI867
aI3141
aI1451
aI3540
aI8930
aI8650
aI4287
aI8651
aI3620
aI8643
aI587
aI1180
aI6444
aI4626
aI447
aI8430
aI2943
aI7834
aI38
aI99
aI400
aI509
aI5352
aI4207
aI5786
aI6598
aI1910
aI1386
aI7052
aI1947
aI4827
aI4717
aI4973
aI5365
aI2401
aI864
aI2069
aI3709
aI1473
aI150
aI3779
aI3146
aI2436
aI1693
aI6433
aI8915
aI1645
aI3756
aI958
aI3503
aI9111
aI147
aI748
aI6939
aI8805
aI5887
aI7269
aI8071
aI3413
aI3137
aI4347
aI246
aI232
aI7350
aI8447
aI1539
aI8403
aI8694
aI273
aI4357
aI9130
aI6315
aI1372
aI7701
aI747
aI4411
aI9396
aI8654
aI6399
aI2982
aI8768
aI1353
aI6313
aI473
aI5556
aI8394
aI3536
aI5825
aI4867
aI102
aI2122
aI8217
aI860
aI8988
aI4069
aI671
aI5118
aI6952
aI3754
aI3437
aI9397
aI4773
aI7418
aI5874
aI9004
aI1210
aI7411
aI6721
aI1639
aI5008
aI6597
aI5282
aI6423
aI3705
aI1056
aI762
aI3380
aI2634
aI3071
aI3605
aI1754
aI5206
aI489
aI7349
aI8525
aI3020
aI8516
aI8432
aI960
aI6853
aI5388
aI5934
aI1939
aI7582
aI5308
aI4726
aI969
aI4295
aI4486
aI4736
aI6242
aI3870
aI5429
aI2507
aI5925
aI8735
aI6094
aI6903
aI4860
aI4449
aI5510
aI5520
aI6403
aI8171
aI6040
aI9206
aI5157
aI7830
aI3344
aI2398
aI8984
aI3643
aI1470
aI8221
aI4080
aI7417
aI946
aI4968
aI2983
aI4962
aI6407
aI8021
aI6743
aI15
aI426
aI7292
aI7920
aI2093
aI7610
aI8811
aI2794
aI347
aI7165
aI2573
aI3439
aI1683
aI2133
aI7312
aI2269
aI3610
aI5928
aI1878
aI9140
aI9208
aI3743
aI7836
aI1248
aI230
aI2920
aI2984
aI6619
aI1419
aI7555
aI775
aI6164
aI947
aI738
aI5815
aI1583
aI3735
aI4668
aI2267
aI8657
aI5873
aI1837
aI1236
aI3485
aI2924
aI4607
aI1323
aI8837
aI5322
aI7225
aI1312
aI5314
aI6362
aI8198
aI7890
aI6962
aI630
aI7419
aI1155
aI6203
aI8936
aI7657
aI8124
aI2140
aI6723
aI4361
aI5630
aI2660
aI3135
aI6612
aI412
aI4549
aI2852
aI4983
aI6578
aI9146
aI7203
aI3172
aI7620
aI3155
aI8600
aI7680
aI1488
aI7068
aI6974
aI8615
aI2176
aI2746
aI6332
aI7053
aI7054
aI2225
aI1260
aI7473
aI7528
aI1156
aI1705
aI390
aI560
aI4644
aI7532
aI1863
aI3408
aI9027
aI6096
aI7774
aI4953
aI8826
aI1150
aI2656
aI7329
aI2500
aI8873
aI8393
aI5461
aI3300
aI985
aI3298
aI2965
aI7520
aI291
aI5052
aI6138
aI5869
aI9220
aI8413
aI6831
aI1295
aI6969
aI4302
aI661
aI8796
aI362
aI6886
aI6621
aI9430
aI2767
aI7693
aI2640
aI1137
aI7186
aI7810
aI4488
aI3145
aI598
aI1362
aI8992
aI9242
aI4910
aI1913
aI5417
aI6631
aI9088
aI7781
aI3164
aI7948
aI5846
aI5886
aI7189
aI281
aI5676
aI7076
aI4749
aI2539
aI5805
aI9349
aI6897
aI287
aI4274
aI2442
aI3689
aI1824
aI9189
aI2459
aI2520
aI9067
aI8374
aI3416
aI2085
aI3939
aI8700
aI6577
aI6786
aI851
aI7580
aI4892
aI239
aI6051
aI3064
aI982
aI6296
aI4821
aI6150
aI3247
aI3997
aI1785
aI5128
aI2216
aI9211
aI880
aI5341
aI2248
aI3547
aI9296
aI1690
aI8360
aI3054
aI721
aI2437
aI6028
aI2481
aI2707
aI5422
aI4478
aI5545
aI6961
aI6919
aI5898
aI3494
aI8359
aI5943
aI7442
aI1618
aI6491
aI7996
aI8566
aI8599
aI5316
aI4370
aI6486
aI5473
aI603
aI2968
aI4797
aI6676
aI2849
aI1229
aI7223
aI8659
aI3320
aI3392
aI3724
aI3448
aI760
aI1625
aI2534
aI4025
aI4476
aI3776
aI7278
aI581
aI5402
aI1411
aI2726
aI5067
aI2402
aI852
aI3783
aI6684
aI9329
aI7444
aI9239
aI1816
aI27
aI1692
aI5077
aI2188
aI3006
aI7845
aI7687
aI6847
aI4999
aI8595
aI6855
aI6931
aI2352
aI9514
aI49
aI7486
aI3192
aI6635
aI4503
aI1062
aI4992
aI7313
aI5272
aI7002
aI462
aI2815
aI6141
aI743
aI6795
aI5174
aI1940
aI3825
aI1858
aI4660
aI6268
aI1924
aI2747
aI8352
aI5223
aI8814
aI8308
aI3436
aI3673
aI1331
aI3033
aI8688
aI2178
aI9050
aI727
aI6679
aI4584
aI8367
aI7864
aI2814
aI9357
aI41
aI2781
aI9209
aI9089
aI4333
aI8203
aI1565
aI9299
aI8839
aI4244
aI2722
aI583
aI7482
aI1278
aI6617
aI2838
aI3996
aI5978
aI5213
aI8258
aI3014
aI5622
aI6630
aI3609
aI3447
aI4661
aI3265
aI3570
aI18
aI9518
aI2610
aI4436
aI5779
aI7397
aI3357
aI1927
aI8276
aI1731
aI6295
aI7729
aI4389
aI1556
aI3114
aI265
aI6580
aI3742
aI9470
aI5151
aI1674
aI4048
aI681
aI800
aI8192
aI5006
aI6416
aI6233
aI1357
aI4140
aI8251
aI123
aI5608
aI1031
aI7458
aI1313
aI9315
aI3434
aI1831
aI2549
aI5858
aI2665
aI1798
aI5180
aI3700
aI2246
aI6043
aI7871
aI8537
aI1563
aI8895
aI2478
aI7230
aI1517
aI8395
aI7775
aI8234
aI8334
aI4040
aI6274
aI5797
aI1806
aI7383
aI8624
aI3052
aI2893
aI2995
aI7669
aI2386
aI3154
aI6641
aI7425
aI2124
aI4401
aI9477
aI1149
aI7991
aI7369
aI1060
aI7079
aI847
aI2530
aI7435
aI8285
aI6085
aI3596
aI5929
aI1603
aI9511
aI5843
aI2912
aI8015
aI1288
aI6215
aI2706
aI2238
aI2150
aI5419
aI6609
aI5574
aI6402
aI6168
aI7229
aI6359
aI3122
aI1342
aI790
aI5378
aI2350
aI5828
aI7513
aI6776
aI8841
aI6284
aI7738
aI2004
aI8292
aI7328
aI6129
aI8106
aI7298
aI6756
aI4086
aI7420
aI2583
aI7366
aI4152
aI1457
aI924
aI4651
aI1018
aI3942
aI7159
aI5696
aI9260
aI4561
aI8670
aI2119
aI8815
aI26
aI1272
aI3028
aI3894
aI6272
aI1305
aI4346
aI9222
aI6098
aI8144
aI9380
aI2996
aI4553
aI1194
aI8406
aI4324
aI6562
aI446
aI2416
aI5141
aI6003
aI1562
aI4979
aI5597
aI5452
aI8493
aI8059
aI8096
aI1036
aI6496
aI8856
aI8375
aI5871
aI7432
aI9419
aI6113
aI4924
aI2615
aI6462
aI8970
aI746
aI8581
aI9358
aI5389
aI2897
aI2787
aI5560
aI9322
aI2285
aI7289
aI5136
aI2613
aI6827
aI5095
aI763
aI2974
aI5246
aI550
aI3499
aI649
aI3800
aI7688
aI9162
aI1301
aI2817
aI5860
aI6936
aI467
aI1166
aI5414
aI1709
aI3654
aI1836
aI4331
aI507
aI459
aI8274
aI3248
aI4960
aI5381
aI1080
aI664
aI1282
aI9007
aI7380
aI6225
aI3198
aI5190
aI6624
aI8720
aI6213
aI5822
aI8754
aI1122
aI6172
aI8496
aI8728
aI8093
aI9281
aI7070
aI648
aI1211
aI2901
aI1284
aI3594
aI2643
aI5186
aI9393
aI8380
aI103
aI2263
aI1081
aI1366
aI6934
aI5656
aI9421
aI2536
aI320
aI3566
aI1942
aI9009
aI16
aI8966
aI5144
aI8424
aI5120
aI1112
aI6212
aI7961
aI2932
aI652
aI9334
aI5194
aI903
aI6005
aI9272
aI2310
aI1647
aI4354
aI4732
aI2620
aI1442
aI7653
aI6067
aI1189
aI6363
aI7184
aI6697
aI3769
aI5080
aI9234
aI403
aI2424
aI9489
aI2447
aI5408
aI5761
aI2915
aI6038
aI8976
aI7988
aI2367
aI965
aI5117
aI572
aI3236
aI6557
aI1283
aI2687
aI6606
aI6297
aI920
aI9314
aI468
aI2047
aI2628
aI6328
aI3565
aI3920
aI4015
aI9379
aI6341
aI2203
aI2916
aI7539
aI7963
aI8027
aI3703
aI2014
aI8301
aI613
aI4906
aI1758
aI8920
aI5068
aI704
aI8014
aI5764
aI4513
aI4441
aI8673
aI2950
aI6661
aI686
aI6659
aI4020
aI6622
aI6990
aI7524
aI6257
aI4913
aI6548
aI2970
aI8132
aI1052
aI1009
aI8812
aI3581
aI1314
aI4128
aI8003
aI7060
aI4937
aI5258
aI8350
aI3801
aI2743
aI3270
aI3762
aI4407
aI4471
aI1907
aI3682
aI74
aI3316
aI4758
aI2503
aI242
aI2835
aI9362
aI756
aI7727
aI4762
aI4158
aI4812
aI8795
aI7439
aI6126
aI113
aI682
aI2020
aI353
aI3421
aI7445
aI9275
aI2021
aI4718
aI8134
aI2957
aI8314
aI2559
aI578
aI679
aI4366
aI6873
aI4596
aI8060
aI4171
aI5252
aI6135
aI6526
aI3541
aI6970
aI4181
aI2885
aI5242
aI7214
aI4507
aI9411
aI2498
aI875
aI7319
aI2711
aI2906
aI7623
aI5713
aI1908
aI1672
aI2754
aI7683
aI4264
aI7367
aI673
aI2923
aI4328
aI8181
aI5727
aI3765
aI8081
aI5167
aI3531
aI3486
aI4879
aI3968
aI5361
aI6817
aI8912
aI4874
aI4240
aI194
aI5210
aI5138
aI9436
aI437
aI9116
aI6877
aI1064
aI4932
aI8024
aI7306
aI2714
aI9360
aI5680
aI6777
aI2652
aI3842
aI211
aI3521
aI109
aI4332
aI593
aI5776
aI7736
aI2082
aI9429
aI385
aI3655
aI6625
aI4794
aI7905
aI2060
aI9502
aI8121
aI7665
aI2551
aI2696
aI5413
aI5081
aI9370
aI3794
aI1528
aI8206
aI4194
aI799
aI7734
aI2371
aI8328
aI7153
aI4
aI2411
aI1835
aI9241
aI6185
aI8956
aI19
aI8378
aI7551
aI1460
aI5870
aI7109
aI4802
aI4237
aI8457
aI2516
aI1207
aI5114
aI247
aI2683
aI5091
aI5295
aI3252
aI2489
aI1643
aI9181
aI2776
aI6705
aI7650
aI8584
aI837
aI4249
aI7649
aI8952
aI8484
aI7971
aI7581
aI7062
aI8861
aI6378
aI7715
aI317
aI8139
aI7224
aI8474
aI3425
aI3546
aI4326
aI4484
aI1717
aI3575
aI1956
aI4033
aI8320
aI3479
aI2650
aI9247
aI2111
aI4448
aI7381
aI8756
aI834
aI3177
aI482
aI3745
aI2289
aI8332
aI7802
aI1981
aI3091
aI6041
aI2438
aI2946
aI1521
aI6300
aI3940
aI8683
aI8097
aI284
aI8036
aI6643
aI4514
aI5171
aI495
aI301
aI4630
aI5460
aI7626
aI541
aI7456
aI3883
aI6725
aI7361
aI5078
aI8718
aI9136
aI1199
aI4846
aI8422
aI1968
aI5488
aI636
aI3000
aI2690
aI1876
aI4470
aI938
aI7248
aI1719
aI9313
aI9319
aI7032
aI667
aI4242
aI185
aI8141
aI8836
aI568
aI2699
aI5492
aI8546
aI8803
aI332
aI3926
aI4943
aI7570
aI865
aI5159
aI4554
aI2985
aI1759
aI7906
aI1847
aI9410
aI245
aI7547
aI6731
aI2276
aI5409
aI4266
aI5759
aI869
aI5209
aI3016
aI3516
aI3693
aI9253
aI313
aI6191
aI369
aI6852
aI529
aI8123
aI5977
aI5854
aI2803
aI3557
aI4427
aI4729
aI3045
aI6437
aI4852
aI8943
aI3836
aI8829
aI2717
aI816
aI4686
aI4869
aI6092
aI7212
aI9197
aI8640
aI1790
aI98
aI4141
aI7318
aI5575
aI4132
aI6157
aI9523
aI2756
aI3025
aI796
aI4113
aI943
aI2143
aI6264
aI4072
aI5515
aI9388
aI8604
aI7421
aI6555
aI4398
aI4267
aI7398
aI1746
aI2704
aI4005
aI5987
aI2391
aI8704
aI5573
aI8486
aI5610
aI8189
aI2622
aI1340
aI3264
aI192
aI8481
aI4014
aI4518
aI6976
aI5426
aI8028
aI5302
aI6585
aI9118
aI6686
aI7378
aI7144
aI3303
aI8532
aI9441
aI3261
aI3173
aI3945
aI1394
aI3039
aI4612
aI4404
aI7651
aI625
aI9093
aI5424
aI7931
aI278
aI2399
aI6103
aI393
aI132
aI7886
aI1157
aI6880
aI6735
aI5277
aI6011
aI754
aI8278
aI7549
aI3712
aI8419
aI9259
aI3713
aI93
aI8298
aI243
aI210
aI8627
aI8866
aI71
aI5010
aI7682
aI2066
aI9508
aI3952
aI4426
aI8146
aI3526
aI6739
aI3698
aI4358
aI6727
aI1602
aI1303
aI7863
aI1420
aI7331
aI1057
aI3714
aI5849
aI8903
aI6956
aI8436
aI112
aI12
aI1413
aI7960
aI2627
aI1344
aI9160
aI311
aI9167
aI589
aI591
aI6439
aI57
aI5247
aI148
aI651
aI2221
aI3804
aI5012
aI480
aI9224
aI2130
aI6414
aI5539
aI4969
aI2682
aI2259
aI2074
aI6327
aI299
aI1076
aI8346
aI5772
aI4746
aI4767
aI5234
aI9251
aI8491
aI454
aI6481
aI4880
aI2412
aI368
aI6427
aI4989
aI254
aI7511
aI9156
aI5509
aI5009
aI7720
aI4282
aI279
aI9124
aI420
aI8002
aI890
aI5418
aI3862
aI9095
aI8103
aI2524
aI6857
aI3560
aI4508
aI7294
aI8357
aI4810
aI4956
aI7400
aI1544
aI8707
aI4855
aI4091
aI5821
aI5884
aI2753
aI8886
aI7704
aI2110
aI6550
aI3542
aI8309
aI7909
aI5325
aI294
aI7180
aI2049
aI4747
aI8851
aI4622
aI3574
aI4092
aI5572
aI6277
aI3798
aI6236
aI5596
aI4477
aI1732
aI3217
aI7095
aI7685
aI1826
aI6091
aI3827
aI6775
aI2608
aI2833
aI5988
aI6682
aI2845
aI9404
aI4221
aI5867
aI4971
aI3463
aI8296
aI3277
aI9040
aI387
aI5148
aI4611
aI1329
aI2577
aI4765
aI6620
aI2116
aI927
aI8898
aI788
aI3978
aI2686
aI3805
aI7708
aI913
aI6110
aI4026
aI4013
aI5455
aI8435
aI435
aI4250
aI8785
aI5305
aI201
aI7205
aI7167
aI7819
aI5848
aI58
aI2581
aI9280
aI1178
aI5907
aI122
aI5838
aI5477
aI4280
aI2964
aI348
aI6333
aI1164
aI5800
aI8194
aI8227
aI8710
aI2750
aI9243
aI4310
aI2527
aI3495
aI7249
aI2097
aI7969
aI5307
aI5267
aI5201
aI4576
aI6695
aI3334
aI8536
aI6364
aI1171
aI8576
aI4604
aI1684
aI6627
aI4433
aI3544
aI5538
aI5111
aI3153
aI5356
aI1114
aI8466
aI309
aI5147
aI5595
aI3734
aI1933
aI1607
aI7387
aI8764
aI3420
aI6125
aI2180
aI563
aI7646
aI7
aI6029
aI1506
aI9474
aI7113
aI1044
aI5672
aI9486
aI7789
aI2837
aI68
aI9114
aI6428
aI6565
aI4685
aI7279
aI3876
aI4268
aI8664
aI2032
aI2163
aI1573
aI812
aI4564
aI9328
aI4373
aI302
aI7897
aI3319
aI8589
aI4829
aI2106
aI3128
aI3108
aI6461
aI339
aI5754
aI4895
aI6358
aI6530
aI3889
aI2053
aI3459
aI3637
aI392
aI5463
aI1730
aI2493
aI1644
aI7865
aI8684
aI5663
aI1000
aI8084
aI126
aI7625
aI8233
aI8538
aI4655
aI6785
aI4120
aI2832
aI3599
aI8256
aI59
aI410
aI307
aI6720
aI9291
aI1162
aI831
aI7220
aI3972
aI5640
aI7453
aI3873
aI3900
aI5535
aI3329
aI8582
aI9207
aI2633
aI6335
aI6224
aI522
aI1379
aI2327
aI217
aI8573
aI1455
aI4130
aI5605
aI171
aI3424
aI8001
aI3943
aI5801
aI9141
aI1986
aI5861
aI2212
aI7364
aI6529
aI5625
aI5585
aI2769
aI6417
aI425
aI2423
aI3535
aI391
aI8708
aI124
aI8533
aI8662
aI5896
aI1190
aI1827
aI4312
aI5918
aI1154
aI6921
aI5856
aI7631
aI4764
aI8293
aI3697
aI2031
aI3398
aI5704
aI3687
aI6430
aI992
aI9055
aI8989
aI7371
aI1474
aI6301
aI1512
aI8523
aI8752
aI1967
aI2231
aI6656
aI4417
aI3087
aI3369
aI7193
aI7089
aI1708
aI8626
aI8046
aI6256
aI1032
aI2552
aI4871
aI280
aI2359
aI6179
aI6793
aI6845
aI2038
aI2861
aI7713
aI2580
aI3782
aI4601
aI5076
aI2944
aI7981
aI6603
aI7187
aI8282
aI8849
aI2954
aI6053
aI8163
aI1017
aI3821
aI8349
aI7733
aI372
aI6202
aI6905
aI5303
aI5636
aI85
aI2703
aI859
aI5719
aI9427
aI3123
aI8255
aI7983
aI5312
aI1029
aI8579
aI5939
aI8107
aI6292
aI8508
aI5530
aI175
aI8897
aI5437
aI8775
aI3333
aI1676
aI3624
aI3003
aI5329
aI6063
aI9059
aI9120
aI7300
aI9338
aI8958
aI2928
aI5181
aI3352
aI8862
aI1317
aI8389
aI9503
aI9170
aI2293
aI1464
aI5930
aI6894
aI4232
aI8705
aI8723
aI5946
aI7096
aI3880
aI1395
aI8527
aI5126
aI2533
aI632
aI4226
aI3275
aI3676
aI5087
aI8063
aI3363
aI4218
aI874
aI7172
aI8635
aI5878
aI4703
aI5497
aI3254
aI1682
aI7051
aI8559
aI4551
aI4891
aI5392
aI6216
aI653
aI1068
aI939
aI8397
aI2153
aI6281
aI4413
aI1699
aI3988
aI6482
aI7939
aI227
aI314
aI6536
aI6156
aI2207
aI7044
aI2087
aI2071
aI4635
aI5369
aI3886
aI6452
aI2888
aI198
aI4739
aI4498
aI3771
aI4839
aI932
aI2057
aI2991
aI3659
aI7093
aI4579
aI8986
aI3893
aI3984
aI9311
aI2821
aI3773
aI7464
aI4941
aI1200
aI5703
aI4633
aI687
aI547
aI4359
aI1089
aI5633
aI7567
aI3480
aI5808
aI386
aI3072
aI6732
aI8911
aI1327
aI631
aI5230
aI7264
aI2878
aI4677
aI6811
aI3134
aI6742
aI8045
aI523
aI8468
aI1408
aI6878
aI5693
aI3489
aI2684
aI3180
aI5546
aI8284
aI7510
aI3422
aI6221
aI7573
aI5720
aI4918
aI4261
aI7807
aI6900
aI9402
aI995
aI7525
aI4094
aI3796
aI8441
aI5834
aI1304
aI2164
aI827
aI9333
aI4755
aI9105
aI2404
aI7911
aI4315
aI3462
aI710
aI1294
aI6483
aI5619
aI7437
aI5335
aI5579
aI8236
aI8893
aI2036
aI1784
aI1778
aI7785
aI6440
aI3473
aI8791
aI1238
aI2822
aI1398
aI8838
aI2988
aI3887
aI3305
aI2090
aI2173
aI1905
aI2843
aI666
aI2495
aI690
aI5975
aI8941
aI1678
aI8173
aI5554
aI1383
aI8482
aI7120
aI3652
aI4084
aI1764
aI7516
aI6573
aI7470
aI2450
aI2836
aI8264
aI2123
aI2185
aI9454
aI4837
aI7413
aI8379
aI7206
aI7471
aI6540
aI5034
aI1249
aI5711
aI5355
aI7944
aI6796
aI3184
aI2003
aI642
aI1103
aI1667
aI1952
aI2908
aI3387
aI6825
aI5883
aI6145
aI8032
aI6861
aI5983
aI6226
aI3949
aI1087
aI7394
aI1333
aI5337
aI8602
aI7461
aI8977
aI9452
aI2281
aI2108
aI5857
aI1911
aI5750
aI606
aI89
aI1615
aI7934
aI5707
aI4406
aI1984
aI9440
aI5161
aI1100
aI3478
aI5968
aI7097
aI4377
aI323
aI8669
aI2360
aI2341
aI5113
aI8519
aI9292
aI6321
aI6450
aI4252
aI6914
aI2473
aI2825
aI6992
aI3923
aI5732
aI6651
aI4888
aI753
aI1736
aI2607
aI4606
aI3888
aI8323
aI7480
aI8429
aI4184
aI5050
aI8178
aI1655
aI5958
aI4619
aI7557
aI2019
aI9214
aI8057
aI1040
aI3402
aI8368
aI8239
aI2332
aI115
aI4695
aI3681
aI3204
aI8119
aI177
aI6885
aI1540
aI7605
aI7254
aI6559
aI1738
aI9367
aI7690
aI3143
aI2903
aI3633
aI4405
aI2939
aI4894
aI7090
aI6167
aI5730
aI3964
aI6564
aI9522
aI841
aI2428
aI8112
aI4409
aI365
aI2598
aI8726
aI4314
aI9025
aI6109
aI6383
aI8973
aI6664
aI987
aI7121
aI8086
aI1582
aI36
aI4882
aI2068
aI7629
aI1108
aI6670
aI1853
aI2678
aI6357
aI6204
aI7827
aI3022
aI1134
aI6771
aI6034
aI8819
aI7902
aI2934
aI6230
aI9263
aI9153
aI7118
aI5909
aI2933
aI5529
aI1626
aI9085
aI3706
aI6940
aI6589
aI9265
aI2669
aI3166
aI7509
aI923
aI7587
aI4638
aI2427
aI8471
aI9046
aI8712
aI63
aI3289
aI6457
aI5555
aI815
aI4563
aI8689
aI449
aI7009
aI1107
aI9501
aI2451
aI999
aI4844
aI6393
aI7893
aI2561
aI2853
aI944
aI8155
aI5343
aI346
aI8089
aI498
aI5293
aI3919
aI3929
aI3176
aI4305
aI2755
aI3746
aI7048
aI3366
aI6445
aI4458
aI6614
aI1226
aI1045
aI1658
aI7831
aI4255
aI8506
aI2727
aI152
aI7065
aI4248
aI6913
aI3456
aI7122
aI2864
aI4965
aI7869
aI4054
aI4759
aI6750
aI4139
aI6985
aI7443
aI5019
aI9029
aI696
aI1725
aI8225
aI531
aI3257
aI9154
aI4336
aI3142
aI4808
aI1181
aI1950
aI1461
aI8405
aI8980
aI8164
aI3377
aI1066
aI792
aI6600
aI4071
aI6527
aI8870
aI8698
aI2594
aI9019
aI1769
aI5373
aI1269
aI9149
aI1165
aI559
aI6575
aI5646
aI1885
aI4102
aI7917
aI8782
aI5236
aI8844
aI9042
aI5774
aI4093
aI953
aI5401
aI4557
aI1084
aI6922
aI8229
aI6420
aI9316
aI1444
aI5015
aI1094
aI1673
aI2347
aI8056
aI3963
aI1665
aI1783
aI4235
aI6347
aI9324
aI7324
aI5827
aI9212
aI902
aI1191
aI8557
aI3638
aI1518
aI7200
aI3790
aI6149
aI5773
aI7478
aI8672
aI182
aI6829
aI9041
aI8678
aI4777
aI3597
aI8254
aI3879
aI9494
aI92
aI6626
aI1614
aI4061
aI5108
aI8661
aI6322
aI1810
aI6061
aI4898
aI7185
aI3156
aI9012
aI7466
aI8289
aI5944
aI1159
aI7967
aI6646
aI7360
aI3737
aI1387
aI3182
aI808
aI3921
aI3863
aI2364
aI110
aI8000
aI1612
aI1482
aI3629
aI1531
aI9499
aI8091
aI7402
aI3051
aI5097
aI1439
aI88
aI8463
aI6910
aI3962
aI6692
aI105
aI8763
aI5245
aI1298
aI2958
aI2435
aI6762
aI8185
aI5368
aI1328
aI2828
aI2422
aI604
aI6644
aI7406
aI2509
aI8932
aI3865
aI1850
aI1801
aI1274
aI956
aI2558
aI4097
aI2510
aI7416
aI8979
aI7953
aI870
aI1718
aI490
aI45
aI5100
aI1467
aI9131
aI907
aI156
aI5959
aI3491
aI7034
aI9386
aI2712
aI8945
aI685
aI3508
aI4096
aI3391
aI8387
aI4938
aI3116
aI4154
aI1085
aI2237
aI5425
aI4804
aI2969
aI4393
aI9487
aI3055
aI5203
aI7001
aI4591
aI8307
aI9201
aI1244
aI1571
aI9437
aI5541
aI1922
aI2537
aI2325
aI6360
aI1441
aI948
aI5428
aI1973
aI4877
aI1205
aI5486
aI7660
aI4727
aI519
aI6532
aI2063
aI6778
aI8560
aI3618
aI3837
aI6455
aI4603
aI2810
aI2918
aI5927
aI7127
aI8366
aI8055
aI8213
aI937
aI5820
aI4809
aI9424
aI7241
aI8914
aI3671
aI5916
aI846
aI4673
aI6405
aI6305
aI4157
aI1516
aI164
aI1141
aI504
aI3669
aI6338
aI1951
aI4843
aI2557
aI575
aI8062
aI7244
aI361
aI3750
aI2647
aI7743
aI3326
aI2856
aI6998
aI3517
aI6070
aI5745
aI569
aI9231
aI66
aI9013
aI7326
aI399
aI5742
aI7025
aI1997
aI4291
aI3312
aI8149
aI1168
aI945
aI819
aI1916
aI1685
aI5298
aI3296
aI1120
aI5617
aI1130
aI5143
aI2584
aI7841
aI2777
aI1881
aI717
aI5581
aI2799
aI6823
aI2602
aI5399
aI5438
aI478
aI5029
aI1431
aI1766
aI2663
aI2504
aI377
aI3954
aI5103
aI2900
aI5101
aI5202
aI6539
aI4351
aI1920
aI611
aI1975
aI2621
aI1587
aI5135
aI1995
aI4396
aI6923
aI5792
aI8335
aI9039
aI162
aI3593
aI1851
aI4681
aI1233
aI3591
aI6019
aI8372
aI7094
aI1787
aI4530
aI1946
aI5301
aI644
aI4039
aI7135
aI1102
aI7011
aI6733
aI4334
aI3678
aI97
aI191
aI7873
aI5119
aI1086
aI6023
aI9351
aI3467
aI9387
aI1552
aI2487
aI8050
aI5017
aI3078
aI5962
aI858
aI8427
aI540
aI6442
aI1888
aI2773
aI7293
aI822
aI157
aI270
aI1595
aI678
aI1553
aI1613
aI1054
aI4510
aI4365
aI7151
aI2550
aI941
aI7603
aI3527
aI6511
aI5263
aI5178
aI6279
aI3194
aI5326
aI2081
aI9216
aI6406
aI8753
aI2277
aI9485
aI659
aI3323
aI6106
aI2390
aI189
aI3310
aI1308
aI4805
aI3553
aI8174
aI2731
aI4674
aI5474
aI1037
aI2321
aI4100
aI8152
aI4631
aI7323
aI2202
aI8853
aI8439
aI9352
aI6759
aI6200
aI2262
aI2344
aI7857
aI4325
aI2884
aI5447
aI6474
aI8909
aI7265
aI6666
aI6493
aI8120
aI6046
aI5256
aI1604
aI7656
aI6451
aI4170
aI8479
aI9509
aI5024
aI6435
aI4757
aI1788
aI9373
aI957
aI3585
aI4795
aI7455
aI1744
aI9082
aI5689
aI455
aI3912
aI3826
aI460
aI3786
aI3186
aI5629
aI3797
aI7889
aI2972
aI4201
aI8026
aI9308
aI7598
aI8160
aI8085
aI5569
aI9138
aI3077
aI5221
aI7763
aI6604
aI8828
aI5271
aI6908
aI5480
aI5826
aI5150
aI8082
aI4208
aI641
aI9069
aI458
aI3631
aI7069
aI2316
aI3229
aI3677
aI693
aI6346
aI7179
aI6791
aI8910
aI7989
aI2317
aI6119
aI3076
aI2694
aI5604
aI3081
aI4238
aI290
aI8074
aI5692
aI6947
aI8896
aI8771
aI3515
aI7141
aI2780
aI3977
aI4234
aI260
aI2326
aI3872
aI8313
aI9521
aI1983
aI7174
aI1217
aI4078
aI5940
aI3445
aI2286
aI5371
aI6276
aI8459
aI3739
aI1958
aI8135
aI6007
aI6758
aI9101
aI5549
aI934
aI6901
aI5706
aI4082
aI635
aI5642
aI1989
aI7895
aI8354
aI4939
aI5288
aI7428
aI5735
aI6325
aI7110
aI7142
aI1270
aI714
aI5637
aI4270
aI5811
aI3385
aI7188
aI7668
aI9302
aI6155
aI3223
aI5489
aI5601
aI5182
aI4982
aI713
aI2102
aI3397
aI6418
aI1541
aI5285
aI6937
aI1384
aI1010
aI3500
aI9233
aI2693
aI6748
aI4670
aI3079
aI43
aI7928
aI3911
aI6588
aI7898
aI5994
aI3027
aI4481
aI7705
aI1033
aI2798
aI9031
aI6466
aI8073
aI3304
aI8535
aI2195
aI3645
aI7333
aI1311
aI4834
aI4682
aI4930
aI2772
aI6911
aI5521
aI4350
aI1961
aI5184
aI1894
aI6984
aI2026
aI752
aI6436
aI5864
aI7061
aI5760
aI1462
aI4691
aI5476
aI6413
aI3639
aI555
aI684
aI5478
aI7941
aI4550
aI4021
aI3720
aI8371
aI5102
aI6294
aI6334
aI2505
aI2261
aI5616
aI1438
aI5115
aI5094
aI5165
aI2051
aI7894
aI5882
aI5627
aI1428
aI7072
aI1022
aI8122
aI6326
aI1714
aI3817
aI7440
aI2565
aI5166
aI4690
aI7531
aI3854
aI6971
aI396
aI1376
aI7210
aI8706
aI737
aI8778
aI7427
aI3726
aI5973
aI4489
aI5423
aI4824
aI1962
aI3606
aI8219
aI7084
aI551
aI5362
aI1860
aI4440
aI5237
aI5628
aI8318
aI2484
aI1152
aI9343
aI7017
aI8010
aI3343
aI6820
aI6896
aI4889
aI3167
aI4634
aI3718
aI8632
aI363
aI1182
aI6497
aI3112
aI1265
aI2548
aI2059
aI2801
aI8109
aI343
aI7049
aI8321
aI7700
aI8498
aI6830
aI8934
aI3561
aI6799
aI1346
aI1843
aI5537
aI8793
aI7202
aI1633
aI1075
aI2192
aI4381
aI658
aI8578
aI1763
aI2099
aI8305
aI7501
aI2139
aI1960
aI83
aI1737
aI7252
aI4124
aI2335
aI8445
aI733
aI740
aI2160
aI8794
aI3440
aI9415
aI6801
aI4881
aI7038
aI966
aI977
aI1448
aI4796
aI8012
aI4135
aI8245
aI976
aI810
aI8665
aI2482
aI639
aI5912
aI7447
aI1660
aI238
aI5584
aI4786
aI4037
aI6408
aI1479
aI6429
aI626
aI981
aI7540
aI7041
aI5649
aI7529
aI1751
aI1173
aI1245
aI6995
aI6424
aI8864
aI2297
aI2658
aI8562
aI7608
aI234
aI223
aI2922
aI3717
aI6239
aI4083
aI6849
aI4733
aI8392
aI3090
aI1631
aI5405
aI3774
aI1545
aI6365
aI8680
aI2050
aI4292
aI2579
aI618
aI8722
aI8078
aI5028
aI7788
aI5064
aI3235
aI213
aI633
aI444
aI4738
aI6803
aI7764
aI735
aI8892
aI3957
aI7310
aI5756
aI501
aI7492
aI2161
aI3411
aI4897
aI3259
aI6633
aI6770
aI3518
aI791
aI2839
aI7124
aI3053
aI989
aI3580
aI3733
aI2334
aI3614
aI4620
aI6701
aI8040
aI5233
aI8891
aI7037
aI5847
aI4687
aI2733
aI1619
aI5531
aI5053
aI1990
aI4010
aI6318
aI7232
aI1354
aI7042
aI6390
aI7613
aI3807
aI863
aI8054
aI6523
aI5794
aI5214
aI4202
aI3024
aI6582
aI2227
aI9413
aI4231
aI8916
aI4669
aI5250
aI562
aI9423
aI3634
aI1382
aI3482
aI954
aI8110
aI6683
aI1449
aI6926
aI7553
aI438
aI1991
aI688
aI3034
aI5831
aI9147
aI8126
aI4306
aI7390
aI7813
aI8009
aI2661
aI4858
aI4577
aI106
aI3469
aI9081
aI4700
aI4980
aI8750
aI7782
aI4541
aI2816
aI7709
aI4909
aI8725
aI8353
aI244
aI4356
aI9417
aI2270
aI5734
aI8567
aI9481
aI4540
aI7457
aI8534
aI81
aI5289
aI5721
aI2589
aI4465
aI5729
aI9003
aI5566
aI7274
aI8633
aI6298
aI711
aI4233
aI2149
aI7334
aI520
aI2796
aI6790
aI757
aI8504
aI8382
aI4654
aI4178
aI768
aI6667
aI7761
aI3050
aI6004
aI8231
aI7832
aI2199
aI1221
aI4506
aI3228
aI8312
aI975
aI6080
aI3775
aI6504
aI1964
aI266
aI2603
aI1994
aI2235
aI1388
aI6470
aI6704
aI5351
aI6352
aI7635
aI5842
aI257
aI5323
aI4522
aI1421
aI1515
aI2540
aI1132
aI2797
aI5717
aI4624
aI8061
aI6601
aI3144
aI6476
aI622
aI5587
aI8751
aI7772
aI7792
aI3582
aI3895
aI6473
aI3537
aI7860
aI5824
aI1695
aI297
aI7297
aI1803
aI4903
aI3852
aI8777
aI1361
aI915
aI1716
aI8957
aI5394
aI9066
aI9270
aI1293
aI6870
aI1809
aI6042
aI4987
aI2353
aI2299
aI5421
aI1136
aI5669
aI4582
aI6460
aI2775
aI6330
aI5726
aI7067
aI4269
aI7043
aI1019
aI5668
aI3644
aI4415
aI9123
aI5259
aI919
aI6957
aI6151
aI118
aI1941
aI1378
aI968
aI4921
aI4707
aI1671
aI2268
aI3861
aI9304
aI2432
aI1577
aI6208
aI1525
aI2168
aI2306
aI8649
aI730
aI7632
aI9090
aI3763
aI2266
aI8682
aI3661
aI78
aI5503
aI2695
aI8151
aI1566
aI1902
aI3401
aI4567
aI7303
aI5770
aI4339
aI6026
aI5022
aI5109
aI465
aI7242
aI7125
aI8311
aI1723
aI7107
aI8150
aI1025
aI2005
aI8653
aI8937
aI1899
aI8162
aI7932
aI308
aI1504
aI8990
aI5469
aI6655
aI77
aI4558
aI2892
aI3767
aI3847
aI5309
aI2571
aI3215
aI5275
aI1028
aI5562
aI7800
aI8007
aI2061
aI1854
aI5523
aI7091
aI2220
aI996
aI7260
aI3950
aI5540
aI6303
aI6084
aI52
aI7712
aI2035
aI2616
aI1061
aI7801
aI7977
aI3864
aI2999
aI5393
aI7900
aI1262
aI8619
aI5332
aI9283
aI840
aI2033
aI8993
aI2859
aI2114
aI6243
aI6069
aI3049
aI6728
aI6513
aI4950
aI566
aI7913
aI6136
aI5701
aI1389
aI8302
aI2408
aI248
aI4317
aI6368
aI4059
aI1909
aI6766
aI3381
aI1406
aI3203
aI3361
aI2569
aI2955
aI5504
aI1065
aI6075
aI1627
aI7768
aI3838
aI7494
aI1392
aI8745
aI2054
aI8461
aI5387
aI1722
aI5334
aI7659
aI2779
aI228
aI8414
aI1227
aI6807
aI9497
aI5003
aI4730
aI2144
aI3755
aI4629
aI6792
aI7382
aI7677
aI6480
aI2871
aI1687
aI3306
aI8868
aI2006
aI6520
aI2280
aI1548
aI133
aI1591
aI2501
aI9496
aI9052
aI1780
aI3752
aI5072
aI5580
aI3349
aI8083
aI4722
aI7496
aI5261
aI1443
aI5145
aI6543
aI9455
aI4149
aI8737
aI5306
aI5766
aI3604
aI5253
aI3791
aI8100
aI2766
aI6183
aI3083
aI4277
aI8833
aI1352
aI5228
aI1629
aI1554
aI9068
aI2413
aI1890
aI3307
aI3370
aI3096
aI5244
aI2142
aI5457
aI1020
aI75
aI921
aI5374
aI5576
aI3898
aI1664
aI1440
aI8948
aI8237
aI383
aI259
aI6719
aI3904
aI5016
aI1777
aI1564
aI4493
aI6561
aI1703
aI1640
aI9350
aI8580
aI2245
aI5921
aI7422
aI7117
aI9256
aI9355
aI472
aI3487
aI5740
aI3913
aI6856
aI445
aI6754
aI669
aI5192
aI8757
aI2748
aI5434
aI7452
aI4534
aI7074
aI1710
aI5583
aI3711
aI1498
aI6152
aI7767
aI3892
aI8402
aI481
aI1290
aI3828
aI6446
aI2952
aI2165
aI2135
aI511
aI5524
aI3165
aI7436
aI2219
aI3297
aI1418
aI5427
aI335
aI7263
aI4088
aI2356
aI4959
aI4710
aI341
aI5062
aI742
aI8275
aI3993
aI6915
aI5331
aI2137
aI729
aI2156
aI3953
aI6492
aI8551
aI4675
aI2094
aI607
aI3348
aI9330
aI8347
aI2547
aI6312
aI8065
aI2980
aI8204
aI6214
aI6988
aI1405
aI6933
aI6015
aI4479
aI6917
aI3907
aI8638
aI17
aI7888
aI7791
aI4052
aI24
aI1628
aI861
aI9
aI40
aI5395
aI253
aI8639
aI6850
aI8520
aI1240
aI6522
aI2951
aI8786
aI453
aI1747
aI1021
aI7826
aI2929
aI1204
aI73
aI1694
aI6671
aI5004
aI5796
aI3354
aI333
aI9271
aI5922
aI3983
aI212
aI7926
aI3650
aI5023
aI8702
aI1542
aI5211
aI2474
aI6810
aI6508
aI9011
aI8717
aI7201
aI637
aI2977
aI370
aI8052
aI4215
aI4934
aI6997
aI4618
aI415
aI1848
aI6012
aI1580
aI3577
aI7327
aI516
aI9219
aI3684
aI4535
aI3555
aI7481
aI8797
aI5694
aI646
aI3578
aI4062
aI7358
aI6169
aI7024
aI1351
aI2721
aI1742
aI2636
aI450
aI8824
aI4667
aI6645
aI4915
aI7674
aI9087
aI5440
aI3708
aI4341
aI2556
aI9030
aI1896
aI624
aI4467
aI5568
aI1069
aI5684
aI4051
aI3009
aI6516
aI4704
aI4659
aI7196
aI69
aI2998
aI1055
aI5655
aI4676
aI2789
aI9432
aI2629
aI4402
aI2632
aI4742
aI2840
aI6763
aI1841
aI8574
aI3339
aI8645
aI1125
aI8153
aI204
aI3509
aI2252
aI9516
aI6887
aI5993
aI6265
aI8281
aI7993
aI7506
aI4029
aI2112
aI4724
aI7152
aI231
aI1873
aI8232
aI4383
aI6209
aI2255
aI3932
aI3036
aI8105
aI7552
aI4089
aI8297
aI8749
aI5031
aI1974
aI9431
aI2742
aI6509
aI7286
aI8101
aI6447
aI3785
aI1519
aI6065
aI5533
aI6471
aI3510
aI9327
aI4187
aI6479
aI6134
aI9108
aI7787
aI817
aI2444
aI42
aI9204
aI8183
aI9054
aI8214
aI2526
aI2651
aI2716
aI7000
aI2177
aI6198
aI9493
aI6693
aI6477
aI2644
aI2384
aI9445
aI3418
aI6182
aI3337
aI6560
aI9336
aI5125
aI1390
aI723
aI7658
aI7078
aI3533
aI5937
aI8721
aI2279
aI3524
aI7595
aI7475
aI2710
aI111
aI7811
aI8300
aI3317
aI1241
aI6551
aI9122
aI3193
aI2358
aI7606
aI7728
aI2976
aI7694
aI524
aI4787
aI6835
aI325
aI4951
aI2218
aI8363
aI1485
aI5823
aI617
aI1193
aI676
aI199
aI3341
aI1945
aI5614
aI5780
aI1074
aI6535
aI4806
aI3903
aI4723
aI6994
aI1590
aI1813
aI6854
aI8494
aI1634
aI5018
aI5789
aI4009
aI8997
aI7721
aI8999
aI5454
aI4076
aI8863
aI2666
aI3890
aI5662
aI8337
aI134
aI1289
aI4183
aI4316
aI424
aI5105
aI7535
aI6977
aI1310
aI2406
aI719
aI8418
aI8577
aI2485
aI6027
aI2370
aI964
aI7429
aI7942
aI8628
aI8114
aI7126
aI3059
aI6528
aI1753
aI3820
aI1934
aI1797
aI8340
aI8730
aI5132
aI2734
aI4688
aI5527
aI6282
aI6307
aI304
aI5949
aI8583
aI4147
aI6699
aI6593
aI7339
aI7986
aI4679
aI5744
aI2205
aI1549
aI1275
aI6574
aI4861
aI7645
aI5966
aI2736
aI8933
aI5855
aI8224
aI6972
aI4148
aI6355
aI4590
aI7638
aI8098
aI466
aI5240
aI8136
aI4775
aI3601
aI5257
aI5089
aI5659
aI5677
aI6223
aI6196
aI1172
aI352
aI8820
aI4820
aI9078
aI2713
aI3218
aI4199
aI6703
aI623
aI8462
aI1533
aI1641
aI9353
aI7593
aI533
aI5149
aI2894
aI9121
aI2181
aI188
aI7403
aI8495
aI3874
aI3539
aI7740
aI1575
aI2048
aI2079
aI1679
aI7616
aI378
aI7686
aI5768
aI4461
aI5687
aI8781
aI3365
aI6380
aI7853
aI4256
aI2609
aI9391
aI3834
aI8270
aI7833
aI9084
aI9083
aI3741
aI6072
aI898
aI7155
aI8887
aI5512
aI2805
aI8760
aI6078
aI7474
aI1489
aI1148
aI5739
aI8266
aI6121
aI6549
aI8196
aI3965
aI6797
aI8008
aI8511
aI6101
aI8827
aI5606
aI709
aI5970
aI1697
aI7527
aI1043
aI7585
aI4866
aI3065
aI7707
aI6596
aI895
aI2691
aI4849
aI888
aI7689
aI7745
aI4382
aI7246
aI7778
aI8326
aI6673
aI1772
aI4863
aI1526
aI9363
aI3646
aI7628
aI4001
aI836
aI8090
aI439
aI3635
aI1829
aI5366
aI469
aI2866
aI2215
aI672
aI484
aI2103
aI3707
aI1396
aI9186
aI5705
aI7019
aI8823
aI2646
aI7063
aI7272
aI4375
aI2388
aI3747
aI4641
aI1499
aI9128
aI5475
aI2718
aI8869
aI8475
aI703
aI4376
aI6425
aI9103
aI3026
aI4217
aI835
aI4007
aI7259
aI4236
aI7648
aI6285
aI4656
aI3029
aI5007
aI3612
aI3465
aI1735
aI7590
aI2380
aI2226
aI8515
aI4286
aI7779
aI4434
aI8759
aI2543
aI9060
aI6800
aI9106
aI3770
aI2162
aI3454
aI2857
aI8618
aI2258
aI4720
aI7987
aI2511
aI8044
aI7258
aI2417
aI3279
aI2421
aI3430
aI7426
aI8020
aI7098
aI8591
aI2741
aI8709
aI1256
aI3961
aI1608
aI5299
aI5472
aI1795
aI4970
aI8616
aI7003
aI5168
aI3971
aI3683
aI6832
aI5702
aI4756
aI3367
aI6409
aI7128
aI95
aI7783
aI3934
aI464
aI525
aI128
aI3974
aI5648
aI1088
aI4780
aI892
aI6120
aI1436
aI1261
aI7957
aI5777
aI7818
aI2947
aI9285
aI7138
aI1741
aI4770
aI8865
aI288
aI7137
aI1985
aI7803
aI3207
aI5602
aI7866
aI1393
aI2600
aI2001
aI4923
aI5804
aI801
aI2328
aI7918
aI1611
aI3716
aI4360
aI6293
aI9371
aI9079
aI1839
aI1668
aI1931
aI7105
aI596
aI1133
aI4552
aI4143
aI6290
aI6115
aI402
aI3896
aI8846
aI1216
aI4862
aI5961
aI5465
aI1588
aI7870
aI8118
aI6556
aI8286
aI6137
aI7175
aI9348
aI2158
aI8889
aI8731
aI4517
aI6443
aI8391
aI6642
aI6304
aI2854
aI1895
aI6707
aI1196
aI586
aI8467
aI4109
aI8351
aI3549
aI4423
aI1015
aI9478
aI4344
aI3704
aI2452
aI6270
aI1119
aI4917
aI1598
aI1585
aI3672
aI1374
aI5915
aI6690
aI2381
aI4760
aI5220
aI3616
aI249
aI4225
aI3721
aI6288
aI5936
aI4195
aI7405
aI5837
aI777
aI5177
aI8780
aI2834
aI1139
aI7537
aI4974
aI537
aI3163
aI4639
aI5552
aI5657
aI3321
aI4428
aI222
aI434
aI1938
aI7561
aI5955
aI6591
aI6966
aI1050
aI4182
aI7342
aI3451
aI4566
aI8517
aI7882
aI9199
aI3930
aI5470
aI5588
aI7879
aI2322
aI6010
aI1524
aI4793
aI9337
aI4763
aI2174
aI1257
aI2340
aI8740
aI1077
aI7277
aI5634
aI850
aI2886
aI773
aI4597
aI2476
aI5953
aI1959
aI6048
aI114
aI2872
aI602
aI7071
aI2701
aI2890
aI8442
aI7140
aI8719
aI6074
aI4813
aI5652
aI296
aI5448
aI1104
aI899
aI1225
aI4587
aI2953
aI4658
aI5598
aI451
aI9339
aI8454
aI1067
aI3021
aI3788
aI4204
aI5321
aI1252
aI1594
aI1616
aI3891
aI1704
aI573
aI205
aI7081
aI4460
aI5511
aI4628
aI8209
aI1046
aI8905
aI8983
aI2926
aI571
aI7903
aI7822
aI7020
aI6148
aI406
aI7498
aI967
aI4272
aI4537
aI3386
aI2357
aI2575
aI5769
aI2239
aI1635
aI1838
aI871
aI7086
aI8407
aI282
aI2795
aI7823
aI521
aI6187
aI7499
aI4743
aI1243
aI7385
aI6484
aI9317
aI1177
aI3554
aI6663
aI1870
aI5403
aI5891
aI2274
aI8030
aI4818
aI306
aI6128
aI4239
aI3619
aI7116
aI1
aI6218
aI1051
aI4227
aI6882
aI766
aI2378
aI7112
aI9223
aI1743
aI5444
aI7317
aI154
aI8142
aI5691
aI5441
aI8923
aI3433
aI5445
aI2764
aI619
aI1355
aI4265
aI6093
aI6036
aI8788
aI3924
aI6062
aI1866
aI485
aI3959
aI7855
aI6973
aI8400
aI2407
aI8381
aI1369
aI6716
aI3908
aI9382
aI7572
aI901
aI9172
aI4896
aI5924
aI8802
aI8130
aI3918
aI2159
aI2979
aI8042
aI3626
aI3525
aI3667
aI5139
aI6273
aI3255
aI7368
aI1425
aI3701
aI3389
aI55
aI4967
aI8762
aI4928
aI202
aI8154
aI5787
aI195
aI46
aI8485
aI9510
aI5487
aI8572
aI416
aI8727
aI3032
aI5124
aI528
aI7465
aI6605
aI2323
aI8191
aI2470
aI4320
aI3476
aI2653
aI7036
aI7949
aI7747
aI9274
aI4636
aI9476
aI1559
aI5593
aI6454
aI5170
aI5085
aI4588
aI2732
aI4090
aI7143
aI8018
aI5875
aI1429
aI6490
aI744
aI5372
aI4713
aI2606
aI2055
aI5406
aI4997
aI6340
aI6881
aI4050
aI3041
aI3074
aI1437
aI7927
aI8901
aI6397
aI9023
aI4119
aI6774
aI8128
aI8505
aI9361
aI5251
aI172
aI4392
aI7840
aI9332
aI5967
aI4145
aI6356
aI2018
aI7908
aI4017
aI2333
aI3664
aI677
aI3761
aI7559
aI795
aI5673
aI3085
aI6231
aI866
aI1334
aI2349
aI6710
aI144
aI2172
aI3368
aI1680
aI4573
aI5432
aI4190
aI4174
aI3443
aI3815
aI5046
aI5043
aI842
aI3615
aI2305
aI546
aI3031
aI1861
aI8444
aI5045
aI471
aI8079
aI4716
aI2813
aI7192
aI1971
aI7355
aI1403
aI5507
aI1291
aI4947
aI8822
aI973
aI4474
aI2931
aI3388
aI5600
aI5836
aI3429
aI4371
aI4362
aI3208
aI716
aI2483
aI8872
aI286
aI376
aI9472
aI1727
aI532
aI7679
aI6904
aI9080
aI397
aI187
aI928
aI7270
aI5225
aI2525
aI6964
aI4616
aI3011
aI190
aI3268
aI2672
aI917
aI8159
aI224
aI7914
aI5458
aI3417
aI7386
aI6351
aI6089
aI2312
aI6159
aI5412
aI5666
aI5163
aI3668
aI8341
aI7780
aI7670
aI4437
aI23
aI1849
aI1073
aI1224
aI3948
aI9165
aI6052
aI7218
aI749
aI4529
aI7596
aI4285
aI4276
aI6525
aI5079
aI3844
aI794
aI6024
aI9148
aI8492
aI824
aI732
aI6590
aI7145
aI3608
aI1871
aI6431
aI5917
aI7959
aI4621
aI3394
aI4961
aI8143
aI2978
aI8929
aI3364
aI1893
aI9399
aI3987
aI62
aI6806
aI5971
aI8784
aI1235
aI1116
aI7222
aI4594
aI7710
aI3139
aI9356
aI7964
aI2147
aI3138
aI6524
aI1949
aI1495
aI5453
aI1214
aI772
aI930
aI5096
aI6021
aI7765
aI949
aI9282
aI3452
aI5942
aI5812
aI6342
aI3613
aI9368
aI7754
aI2214
aI2467
aI4547
aI761
aI226
aI5493
aI4715
aI9418
aI326
aI3263
aI4349
aI6980
aI4198
aI1707
aI782
aI5266
aI2210
aI7338
aI1079
aI4206
aI6254
aI4108
aI7681
aI20
aI3833
aI665
aI7517
aI1111
aI2431
aI6678
aI6816
aI6259
aI8133
aI3280
aI7904
aI7026
aI8157
aI7907
aI6456
aI2403
aI6422
aI4942
aI4251
aI3325
aI1879
aI2506
aI476
aI6572
aI7231
aI8729
aI6261
aI6207
aI2761
aI4565
aI4608
aI3823
aI7877
aI8542
aI3113
aI1855
aI203
aI3023
aI7391
aI647
aI518
aI6147
aI8953
aI8260
aI7933
aI3600
aI5985
aI4301
aI1336
aI4801
aI8428
aI789
aI3371
aI169
aI7523
aI3121
aI4899
aI1299
aI7245
aI4500
aI4019
aI9202
aI8004
aI3197
aI2127
aI8634
aI8047
aI6184
aI3471
aI1126
aI1868
aI8885
aI3271
aI1963
aI1623
aI9217
aI1447
aI3849
aI6469
aI2774
aI5032
aI1814
aI6286
aI4136
aI3692
aI6812
aI2962
aI8473
aI9112
aI5217
aI5467
aI4663
aI8502
aI6833
aI534
aI8263
aI2211
aI7602
aI1579
aI4957
aI8453
aI6884
aI2155
aI3120
aI9109
aI1047
aI1345
aI4403
aI5038
aI5762
aI295
aI595
aI7100
aI4783
aI9164
aI868
aI3474
aI3450
aI9246
aI3070
aI5207
aI3162
aI1174
aI9405
aI7282
aI3149
aI9473
aI5070
aI2902
aI5451
aI806
aI564
aI8810
aI6395
aI1509
aI6649
aI9074
aI8094
aI7641
aI8554
aI6840
aI5802
aI7239
aI3649
aI7883
aI9344
aI5991
aI422
aI470
aI6030
aI4298
aI1523
aI1791
aI3221
aI6841
aI4138
aI6724
aI6623
aI857
aI9347
aI7997
aI1360
aI4028
aI5083
aI6453
aI771
aI7336
aI4432
aI5986
aI4598
aI2601
aI9171
aI8325
aI1053
aI2078
aI8691
aI6611
aI2458
aI4854
aI6385
aI5054
aI5661
aI2171
aI5965
aI9435
aI322
aI7408
aI1771
aI8077
aI2313
aI2593
aI3109
aI6745
aI2197
aI3559
aI6102
aI8271
aI456
aI1124
aI4180
aI5852
aI6324
aI6139
aI2785
aI2562
aI3043
aI3015
aI3567
aI1636
aI5506
aI8401
aI1058
aI5193
aI1943
aI7856
aI1215
aI275
aI2623
aI1404
aI8390
aI1996
aI3992
aI9094
aI7719
aI6768
aI3374
aI4338
aI7389
aI4664
aI7108
aI7654
aI8125
aI8319
aI3037
aI6014
aI828
aI8617
aI5152
aI9188
aI6228
aI7136
aI6512
aI2941
aI5954
aI6755
aI8113
aI8569
aI2880
aI3419
aI5048
aI2851
aI2862
aI8792
aI4388
aI119
aI3084
aI1034
aI9407
aI6935
aI7696
aI2604
aI7114
aI4410
aI6082
aI6502
aI2109
aI7599
aI998
aI2788
aI1183
aI2631
aI8847
aI6576
aI1002
aI5075
aI2126
aI84
aI492
aI5785
aI6501
aI3405
aI499
aI5635
aI8460
aI9305
aI1599
aI2121
aI5376
aI300
aI2330
aI1239
aI9392
aI1035
aI4740
aI2118
aI4753
aI7601
aI1804
aI6757
aI2414
aI786
aI1535
aI9057
aI8671
aI8644
aI5528
aI4056
aI3062
aI3982
aI4975
aI5650
aI9238
aI6049
aI8041
aI5199
aI8437
aI8742
aI4560
aI4483
aI6912
aI8399
aI940
aI2596
aI4363
aI3881
aI1610
aI3955
aI441
aI4520
aI7592
aI3007
aI8985
aI9312
aI6558
aI5830
aI3355
aI2046
aI8859
aI5134
aI5342
aI2850
aI7014
aI4189
aI7664
aI6008
aI3636
aI4110
aI1605
aI7666
aI7047
aI7915
aI395
aI4761
aI6195
aI8855
aI2560
aI1255
aI2480
aI5667
aI414
aI7556
aI5030
aI3125
aI926
aI7504
aI8316
aI2008
aI557
aI1469
aI8743
aI3748
aI7237
aI3590
aI4533
aI4873
aI1483
aI3628
aI6374
aI7566
aI2456
aI3658
aI3227
aI7347
aI4501
aI5061
aI1822
aI7546
aI35
aI82
aI4451
aI6175
aI1954
aI2253
aI3212
aI7208
aI3171
aI6323
aI2874
aI6118
aI8521
aI2873
aI722
aI2869
aI9038
aI8377
aI5074
aI2889
aI1617
aI6373
aI2967
aI7477
aI4151
aI576
aI4205
aI3001
aI4364
aI6478
aI3660
aI1624
aI4308
aI506
aI6751
aI1833
aI7058
aI3089
aI2224
aI1500
aI4823
aI986
aI8733
aI7730
aI6337
aI9462
aI8272
aI5586
aI3395
aI6746
aI7080
aI2875
aI1992
aI9294
aI2037
aI1749
aI5131
aI186
aI2961
aI6398
aI6691
aI340
aI7247
aI8022
aI7543
aI8553
aI8832
aI5281
aI7221
aI5771
aI1306
aI3311
aI931
aI5862
aI4455
aI2201
aI9517
aI3917
aI7064
aI8817
aI5899
aI136
aI6687
aI54
aI9006
aI6629
aI258
aI883
aI6815
aI3927
aI7039
aI7463
aI4886
aI8940
aI1297
aI2002
aI725
aI1234
aI7330
aI6948
aI1332
aI8842
aI3382
aI7518
aI34
aI5890
aI4431
aI7821
aI3878
aI5498
aI2072
aI2115
aI536
aI6144
aI8035
aI2271
aI8939
aI379
aI3845
aI7191
aI4114
aI7753
aI4926
aI4319
aI407
aI7548
aI1109
aI7450
aI8660
aI2677
aI8715
aI739
aI6105
aI3484
aI1930
aI6798
aI8177
aI4247
aI5945
aI1823
aI6287
aI2826
aI1223
aI2295
aI5291
aI4355
aI6740
aI1231
aI2730
aI7536
aI8677
aI6747
aI6752
aI3191
aI7507
aI9403
aI9520
aI9325
aI7655
aI2025
aI2578
aI9174
aI8434
aI6675
aI7746
aI6349
aI4885
aI712
aI6848
aI8068
aI6262
aI4599
aI2740
aI8158
aI3795
aI9390
aI4065
aI4993
aI9086
aI2638
aI491
aI6858
aI5189
aI8622
aI2113
aI983
aI9205
aI5280
aI7952
aI4412
aI3505
aI3787
aI4480
aI3598
aI3195
aI3358
aI4288
aI4342
aI1453
aI2531
aI8642
aI7755
aI4304
aI5638
aI9245
aI6963
aI7887
aI922
aI7505
aI1179
aI7771
aI1560
aI6552
aI3400
aI3148
aI6991
aI5908
aI1027
aI3086
aI2942
aI4568
aI8736
aI3728
aI544
aI96
aI1337
aI5338
aI839
aI4475
aI4222
aI4429
aI1819
aI8165
aI7106
aI9448
aI7045
aI8514
aI1529
aI310
aI2994
aI8102
aI2564
aI3012
aI3047
aI6906
aI2986
aI6784
aI4011
aI2022
aI6107
aI6289
aI3104
aI2308
aI2574
aI6547
aI5997
aI6468
aI3315
aI8879
aI5906
aI580
aI4580
aI7954
aI3220
aI5041
aI3340
aI8212
aI5832
aI6123
aI7519
aI692
aI1656
aI9198
aI5400
aI856
aI6366
aI206
aI345
aI590
aI7812
aI7973
aI2425
aI256
aI691
aI2256
aI3498
aI811
aI2096
aI1012
aI5218
aI9065
aI7577
aI5932
aI1030
aI4372
aI264
aI5265
aI7562
aI5950
aI4466
aI5722
aI3572
aI2273
aI8981
aI7484
aI6648
aI1638
aI2209
aI4047
aI1688
aI4665
aI1874
aI4241
aI8322
aI1277
aI2045
aI6348
aI6192
aI2343
aI5697
aI1834
aI5320
aI4583
aI7912
aI643
aI2152
aI1724
aI3299
aI5033
aI3157
aI9279
aI5397
aI1375
aI2887
aI3841
aI4988
aI373
aI4418
aI8963
aI4832
aI6772
aI2925
aI2757
aI8248
aI8524
aI962
aI7612
aI4991
aI7271
aI1144
aI5379
aI3901
aI8835
aI9144
aI1121
aI1268
aI2194
aI5709
aI7396
aI3004
aI5980
aI8755
aI2041
aI8858
aI8918
aI1514
aI3056
aI1493
aI802
aI7013
aI5495
aI6419
aI7757
aI8343
aI9184
aI3209
aI8951
aI6553
aI5169
aI5315
aI7829
aI807
aI6868
aI6860
aI2936
aI3274
aI289
aI6871
aI8598
aI6392
aI8877
aI4556
aI2089
aI6822
aI9236
aI9104
aI5260
aI6808
aI1830
aI4018
aI7966
aI2708
aI3466
aI6503
aI6467
aI2184
aI4192
aI963
aI600
aI1578
aI4112
aI2765
aI565
aI2993
aI5466
aI5385
aI1359
aI9366
aI2723
aI8228
aI1677
aI4330
aI3867
aI1097
aI319
aI1264
aI3869
aI8483
aI8446
aI3200
aI8962
aI3175
aI5790
aI2879
aI4505
aI7560
aI2626
aI8711
aI7565
aI5736
aI1320
aI1203
aI3010
aI6595
aI153
aI5782
aI2193
aI7798
aI1711
aI6566
aI2329
aI8327
aI3831
aI7545
aI7758
aI3226
aI6162
aI1445
aI2363
aI1146
aI7691
aI9293
aI5865
aI9378
aI7695
aI7936
aI4678
aI6238
aI5231
aI2044
aI5122
aI7940
aI404
aI8687
aI6930
aI1840
aI8789
aI1576
aI1661
aI628
aI5431
aI8746
aI4532
aI2052
aI8421
aI375
aI60
aI3295
aI1330
aI7925
aI452
aI6244
aI165
aI7460
aI6181
aI2865
aI7526
aI2387
aI1906
aI1923
aI5710
aI442
aI7251
aI1740
aI7148
aI1721
aI9506
aI8017
aI6660
aI3813
aI6475
aI2260
aI7012
aI7022
aI3464
aI4502
aI6546
aI6953
aI7483
aI3292
aI6143
aI4085
aI8452
aI5310
aI1184
aI1511
aI8049
aI6866
aI7538
aI1192
aI3018
aI8464
aI5216
aI645
aI6166
aI272
aI6902
aI3648
aI5195
aI9021
aI4647
aI6875
aI3759
aI7057
aI9458
aI1768
aI1091
aI2762
aI7173
aI9163
aI4648
aI2056
aI6834
aI2373
aI5496
aI5699
aI5850
aI432
aI2250
aI9498
aI8205
aI6839
aI7236
aI2639
aI7194
aI7808
aI3179
aI9005
aI787
aI7503
aI6088
aI912
aI2
aI4278
aI3627
aI8243
aI699
aI8667
aI7835
aI3105
aI5716
aI3928
aI8637
aI3663
aI8843
aI1176
aI4144
aI6521
aI7075
aI5763
aI5559
aI4684
aI6161
aI9229
aI9277
aI5410
aI3477
aI4672
aI7164
aI1024
aI4191
aI4167
aI5104
aI2528
aI1969
aI6865
aI8675
aI418
aI324
aI7846
aI1486
aI9230
aI3262
aI7732
aI8944
aI1917
aI4803
aI893
aI8922
aI885
aI4443
aI1953
aI2812
aI7725
aI8448
aI277
aI9045
aI689
aI1402
aI1350
aI6210
aI2282
aI2688
aI702
aI1799
aI6367
aI3564
aI8449
aI8137
aI4531
aI8878
aI8830
aI9203
aI2086
aI5561
aI9169
aI4043
aI4944
aI8612
aI6013
aI1082
aI6056
aI3410
aI7872
aI4497
aI6206
aI6981
aI4254
aI2187
aI167
aI7922
aI8528
aI139
aI4179
aI7099
aI9287
aI2315
aI4931
aI9179
aI8252
aI929
aI6009
aI3376
aI7998
aI4712
aI3998
aI8695
aI5027
aI5502
aI4826
aI5354
aI8472
aI4464
aI7215
aI2664
aI764
aI5127
aI726
aI1254
aI7588
aI327
aI610
aI9076
aI2107
aI9221
aI4864
aI8218
aI8871
aI4490
aI4142
aI9420
aI8384
aI707
aI9264
aI4122
aI1805
aI8510
aI1347
aI7018
aI6076
aI6309
aI8629
aI4212
aI2132
aI4504
aI3324
aI9500
aI5935
aI7363
aI1889
aI7711
aI137
aI6401
aI629
aI7795
aI829
aI7322
aI2542
aI1401
aI6726
aI6891
aI6176
aI2911
aI2512
aI8544
aI4735
aI7880
aI6032
aI4134
aI2028
aI2895
aI745
aI7291
aI4446
aI2649
aI3187
aI5000
aI8306
aI2809
aI1250
aI6071
aI7307
aI33
aI972
aI3941
aI7868
aI8048
aI1755
aI3490
aI1812
aI9096
aI3126
aI805
aI7134
aI3621
aI7617
aI6112
aI8226
aI1011
aI8531
aI3102
aI9385
aI8714
aI5755
aI6127
aI8776
aI5224
aI8900
aI1752
aI2455
aI2940
aI3190
aI3178
aI7892
aI7176
aI4224
aI6064
aI6220
aI1597
aI3426
aI7673
aI4602
aI5363
aI7594
aI5582
aI6314
aI1412
aI7839
aI6960
aI2128
aI2336
aI2987
aI6893
aI2460
aI6780
aI8648
aI1650
aI6246
aI4049
aI2392
aI7637
aI3558
aI2448
aI8338
aI283
aI6404
aI4271
aI8967
aI1550
aI6824
aI4856
aI4893
aI7756
aI736
aI8246
aI9446
aI3587
aI3219
aI179
aI5364
aI7744
aI6592
aI3242
aI6889
aI4445
aI7280
aI2702
aI513
aI6983
aI6384
aI2760
aI7149
aI8586
aI5688
aI7799
aI6163
aI7874
aI9374
aI6394
aI2758
aI2783
aI5948
aI1286
aI8848
aI8111
aI7614
aI8938
aI4694
aI8761
aI200
aI359
aI979
aI9182
aI220
aI7817
aI8108
aI3285
aI4469
aI3060
aI8592
aI1123
aI5793
aI4985
aI5817
aI8947
aI6465
aI7793
aI2611
aI4719
aI5641
aI2136
aI331
aI1118
aI9345
aI430
aI6319
aI906
aI2092
aI2724
aI3199
aI4836
aI8370
aI3651
aI1430
aI129
aI9255
aI3956
aI8825
aI1762
aI8288
aI8547
aI663
aI7243
aI1484
aI4127
aI910
aI7392
aI4653
aI8570
aI5972
aI1700
aI9071
aI1435
aI3267
aI2023
aI8244
aI3513
aI7980
aI160
aI8398
aI3258
aI8656
aI8513
aI1222
aI5746
aI5547
aI8545
aI9225
aI914
aI161
aI3875
aI9450
aI862
aI7702
aI3784
aI4878
aI3284
aI4919
aI5563
aI8949
aI1978
aI527
aI4220
aI3751
aI4003
aI3019
aI6587
aI6794
aI4555
aI7182
aI8964
aI1815
aI8480
aI3507
aI5436
aI909
aI9289
aI9117
aI8348
aI13
aI6249
aI9468
aI3428
aI6379
aI4472
aI3727
aI2881
aI9139
aI321
aI7016
aI4066
aI3944
aI1796
aI1023
aI1197
aI4173
aI680
aI1781
aI2376
aI8324
aI4030
aI9300
aI3538
aI1273
aI1415
aI8732
aI2841
aI4077
aI5284
aI2065
aI1912
aI4976
aI2497
aI8779
aI9278
aI216
aI9064
aI477
aI1316
aI6376
aI9145
aI2292
aI7530
aI3094
aI5542
aI7796
aI728
aI7146
aI6306
aI2679
aI5327
aI8850
aI2937
aI2523
aI6177
aI3506
aI8423
aI1105
aI8867
aI5482
aI3322
aI5995
aI4313
aI3764
aI6245
aI8283
aI706
aI7622
aI8187
aI3897
aI5155
aI2668
aI2346
aI1980
aI8693
aI7354
aI1427
aI720
aI5262
aI9058
aI4032
aI76
aI9484
aI1670
aI2300
aI7816
aI8994
aI8860
aI7797
aI8902
aI3414
aI8703
aI1099
aI1230
aI9267
aI6737
aI4259
aI6371
aI7412
aI7544
aI3523
aI2529
aI5578
aI814
aI7281
aI4828
aI7362
aI423
aI3181
aI2844
aI5051
aI2101
aI2088
aI9033
aI5895
aI4940
aI7393
aI6114
aI1300
aI6764
aI3530
aI2846
aI5219
aI2320
aI6190
aI2685
aI2105
aI4387
aI9210
aI5599
aI2802
aI2935
aI1513
aI1409
aI5903
aI9482
aI4958
aI7181
aI5153
aI3002
aI584
aI4111
aI4284
aI879
aI6235
aI4977
aI4731
aI72
aI8758
aI4105
aI4589
aI4216
aI394
aI4169
aI4781
aI1998
aI6544
aI804
aI1373
aI6044
aI5229
aI2502
aI9001
aI9196
aI1367
aI4911
aI4819
aI6818
aI3117
aI3470
aI358
aI4593
aI2913
aI2910
aI8928
aI1128
aI2568
aI1348
aI1287
aI9193
aI4081
aI6
aI896
aI538
aI3519
aI8913
aI7976
aI158
aI2217
aI3269
aI2213
aI6073
aI8066
aI7087
aI3846
aI9257
aI5686
aI4649
aI503
aI5651
aI8410
aI4785
aI2891
aI8831
aI4397
aI388
aI408
aI7735
aI3922
aI3066
aI1117
aI6251
aI364
aI2938
aI2453
aI8747
aI701
aI3415
aI4099
aI3563
aI8291
aI3035
aI7984
aI1977
aI2738
aI236
aI2488
aI6753
aI2570
aI4345
aI6781
aI7916
aI1110
aI3290
aI6227
aI2000
aI7288
aI8277
aI8821
aI2768
aI5658
aI8280
aI4835
aI5456
aI4380
aI1844
aI7309
aI9228
aI1145
aI1739
aI4290
aI8408
aI8039
aI6090
aI6518
aI2369
aI4185
aI6888
aI3063
aI2294
aI4156
aI4788
aI7699
aI4605
aI8172
aI7630
aI502
aI4865
aI497
aI3293
aI7253
aI1407
aI6515
aI3969
aI5923
aI8425
aI4842
aI3569
aI784
aI5435
aI9460
aI3458
aI5851
aI6133
aI2971
aI7910
aI4196
aI4309
aI3680
aI2831
aI5567
aI8512
aI5969
aI4615
aI218
aI488
aI4515
aI8279
aI6343
aI4872
aI8477
aI5741
aI5564
aI4745
aI5798
aI9244
aI6851
aI9097
aI8917
aI809
aI2075
aI990
aI5536
aI8550
aI2287
aI6302
aI2948
aI9461
aI4516
aI5505
aI6211
aI3936
aI1877
aI9183
aI61
aI5313
aI5268
aI9286
aI2599
aI2545
aI2443
aI8926
aI3183
aI3781
aI2496
aI5841
aI8412
aI6698
aI7945
aI594
aI5543
aI8210
aI9492
aI336
aI3390
aI4822
aI3446
aI2372
aI9408
aI7256
aI8748
aI4214
aI6568
aI4586
aI1701
aI3214
aI1456
aI8530
aI8287
aI7891
aI4430
aI942
aI143
aI612
aI4107
aI5278
aI3858
aI5767
aI7211
aI776
aI9443
aI3423
aI6672
aI1726
aI8998
aI7867
aI6862
aI5819
aI3981
aI2091
aI9062
aI9099
aI28
aI634
aI6025
aI9471
aI79
aI2138
aI4327
aI780
aI5996
aI8585
aI7837
aI4352
aI9002
aI5065
aI6951
aI8931
aI3808
aI4900
aI4042
aI1113
aI255
aI2415
aI9035
aI3772
aI662
aI2752
aI820
aI9383
aI8509
aI4927
aI1417
aI5674
aI818
aI4456
aI7671
aI8451
aI3766
aI1702
aI6275
aI7844
aI8666
aI7851
aI3848
aI8961
aI8946
aI312
aI7542
aI7958
aI5738
aI7497
aI4129
aI3960
aI2030
aI7640
aI1691
aI2405
aI1574
aI1266
aI7103
aI553
aI8739
aI5099
aI4253
aI6386
aI1757
aI1380
aI8131
aI5110
aI2070
aI8456
aI2342
aI5913
aI338
aI5712
aI3335
aI7374
aI4243
aI2554
aI1720
aI1049
aI705
aI7627
aI3115
aI5411
aI7250
aI1807
aI8339
aI5565
aI832
aI3383
aI1654
aI8734
aI1038
aI905
aI3189
aI4645
aI3595
aI4492
aI2236
aI6047
aI8497
aI7930
aI2532
aI1620
aI1458
aI5347
aI5185
aI9134
aI741
aI8080
aI517
aI5695
aI6569
aI9504
aI8075
aI3545
aI1728
aI3647
aI2241
aI9269
aI9176
aI3294
aI5297
aI6000
aI4177
aI8140
aI1918
aI2882
aI6618
aI4642
aI3641
aI1170
aI5998
aI3909
aI2377
aI1349
aI8804
aI6943
aI1006
aI1153
aI2790
aI759
aI8888
aI2355
aI7777
aI6709
aI1773
aI4933
aI44
aI4027
aI3073
aI2077
aI1609
aI5264
aI751
aI4394
aI9428
aI1267
aI371
aI1143
aI5446
aI421
aI6872
aI303
aI1926
aI5254
aI769
aI8685
aI4994
aI5439
aI1686
aI29
aI6809
aI9297
aI3579
aI5227
aI6250
aI9191
aI797
aI1397
aI4414
aI9248
aI6864
aI7325
aI6918
aI4450
aI8200
aI2464
aI6708
aI2675
aI6387
aI8069
aI1712
aI3502
aI609
aI398
aI8716
aI2867
aI1919
aI8431
aI5049
aI2541
aI7156
aI6291
aI2824
aI7805
aI4260
aI271
aI32
aI6610
aI3069
aI7359
aI9464
aI486
aI2461
aI2823
aI2067
aI1793
aI1921
aI1391
aI6194
aI3030
aI6879
aI6086
aI8072
aI8211
aI5442
aI9110
aI8385
aI6519
aI4751
aI4494
aI3573
aI1898
aI5430
aI5390
aI8857
aI1008
aI4495
aI6158
aI8116
aI7190
aI7488
aI1321
aI94
aI4523
aI9453
aI3362
aI3753
aI4948
aI9192
aI2667
aI5631
aI4150
aI4774
aI5611
aI2389
aI4617
aI2472
aI556
aI3159
aI1675
aI7376
aI4575
aI2206
aI5902
aI7615
aI463
aI7399
aI334
aI1209
aI3899
aI6955
aI3093
aI4457
aI4408
aI1101
aI483
aI8686
aI292
aI7434
aI974
aI4955
aI6498
aI5450
aI2191
aI3240
aI8208
aI9014
aI4600
aI5013
aI6178
aI9142
aI4643
aI6583
aI9037
aI8489
aI3174
aI778
aI6280
aI316
aI10
aI3403
aI3
aI7158
aI5204
aI7356
aI4103
aI3308
aI7195
aI3161
aI8092
aI3653
aI6615
aI7947
aI6838
aI660
aI2595
aI3552
aI1892
aI4462
aI3232
aI7621
aI3058
aI512
aI5749
aI5468
aI2198
aI4966
aI356
aI1063
aI2009
aI2546
aI4263
aI7472
aI3529
aI8207
aI6950
aI833
aI3625
aI5296
aI7199
aI9495
aI9438
aI9026
aI2705
aI5208
aI5198
aI9187
aI8193
aI8315
aI4548
aI8884
aI5813
aI2409
aI853
aI6714
aI6472
aI2655
aI4791
aI7320
aI6153
aI5671
aI8881
aI3444
aI6441
aI2200
aI4799
aI7204
aI3435
aI4807
aI6634
aI2728
aI7316
aI4246
aI5911
aI6761
aI3040
aI6929
aI1007
aI4322
aI6375
aI7618
aI3550
aI2538
aI2441
aI8676
aI5632
aI4329
aI9173
aI1567
aI8692
aI933
aI1400
aI4734
aI5014
aI6982
aI1621
aI6189
aI1251
aI2223
aI8621
aI6391
aI8067
aI5615
aI6779
aI3725
aI6188
aI6814
aI3819
aI9449
aI9505
aI7353
aI8167
aI1555
aI1865
aI9051
aI7388
aI4293
aI7515
aI4996
aI5056
aI496
aI3760
aI9150
aI8095
aI6507
aI7899
aI886
aI4245
aI6369
aI6485
aI8176
aI8242
aI7814
aI8033
aI6685
aI4004
aI9400
aI6017
aI8499
aI3372
aI3884
aI774
aI8641
aI1307
aI8852
aI6165
aI7295
aI108
aI5063
aI5960
aI1593
aI9475
aI235
aI4343
aI9129
aI7946
aI4421
aI9398
aI7273
aI5904
aI697
aI5957
aI8594
aI8031
aI9018
aI9020
aI4689
aI6382
aI5544
aI5197
aI8362
aI4569
aI4307
aI3548
aI8235
aI4545
aI5479
aI2383
aI2190
aI107
aI574
aI91
aI4311
aI1228
aI8356
aI3356
aI3850
aI5806
aI1472
aI4741
aI5375
aI4485
aI515
aI2471
aI6033
aI7082
aI7723
aI6132
aI2909
aI3230
aI4800
aI5881
aI5992
aI6996
aI5551
aI951
aI6039
aI1325
aI6859
aI2514
aI1039
aI7102
aI5810
aI7970
aI1093
aI4164
aI142
aI1365
aI2175
aI8127
aI8501
aI1637
aI6819
aI3584
aI5590
aI1774
aI5471
aI545
aI6662
aI2229
aI4146
aI3532
aI4595
aI7847
aI7575
aI6083
aI457
aI7285
aI2642
aI6669
aI2671
aI5255
aI6055
aI168
aI2877
aI7600
aI1649
aI3286
aI3278
aI1584
aI2709
aI9024
aI3859
aI6702
aI1589
aI8539
aI2778
aI3662
aI9044
aI4453
aI9359
aI6637
aI3967
aI8138
aI8571
aI6154
aI7737
aI5391
aI2385
aI8613
aI848
aI7974
aI5232
aI8690
aI9409
aI5350
aI1534
aI1508
aI7163
aI7760
aI51
aI9340
aI493
aI7005
aI5200
aI8440
aI2311
aI429
aI1750
aI3916
aI8438
aI5318
aI1811
aI4036
aI252
aI298
aI3851
aI4543
aI8655
aI9126
aI7476
aI8606
aI4614
aI3946
aI4116
aI5121
aI2630
aI3818
aI9422
aI8965
aI758
aI6252
aI5981
aI4024
aI9061
aI2264
aI7257
aI4750
aI1381
aI6665
aI8037
aI9268
aI4213
aI267
aI6907
aI293
aI2645
aI131
aI229
aI6108
aI3250
aI4299
aI4945
aI1198
aI4784
aI6744
aI7489
aI5626
aI4487
aI1280
aI7493
aI8465
aI2848
aI4920
aI3937
aI7008
aI3283
aI2062
aI4998
aI9218
aI2563
aI5517
aI4400
aI1302
aI6570
aI2830
aI7430
aI405
aI2491
aI4838
aI1095
aI7924
aI6361
aI4420
aI500
aI4511
aI7563
aI891
aI6638
aI5743
aI614
aI7133
aI8801
aI7752
aI887
aI6892
aI6459
aI1547
aI1828
aI7724
aI8906
aI6636
aI2095
aI1903
aI6599
aI2324
aI8674
aI1213
aI3302
aI4571
aI4348
aI3057
aI4419
aI381
aI4106
aI6054
aI3005
aI262
aI8548
aI9490
aI180
aI2617
aI6160
aI3210
aI8216
aI3406
aI5499
aI3822
aI4936
aI4963
aI5179
aI474
aI7717
aI1987
aI1292
aI5889
aI8500
aI3686
aI8268
aI7985
aI6944
aI904
aI9232
aI7741
aI8894
aI50
aI5859
aI3396
aI3461
aI9414
aI3583
aI7129
aI1296
aI5778
aI8265
aI4008
aI8241
aI8556
aI7438
aI7604
aI8549
aI7770
aI3136
aI9000
aI5514
aI6607
aI535
aI9307
aI8607
aI219
aI1761
aI7568
aI4698
aI1993
aI5396
aI1630
aI5845
aI2309
aI1422
aI3694
aI8344
aI6097
aI2134
aI7154
aI4035
aI5964
aI4650
aI7345
aI5718
aI849
aI4188
aI8541
aI215
aI3571
aI8415
aI4172
aI1936
aI5339
aI7859
aI5863
aI1794
aI6788
aI3233
aI4416
aI7207
aI873
aI5088
aI9469
aI4262
aI9365
aI6993
aI2170
aI173
aI2098
aI1072
aI5107
aI4884
aI5021
aI5073
aI7308
aI1820
aI9467
aI640
aI2426
aI3906
aI5844
aI7441
aI7982
aI3455
aI221
aI6760
aI7226
aI8563
aI2479
aI7217
aI7056
aI2959
aI8652
aI6229
aI4831
aI163
aI2635
aI3044
aI8487
aI7459
aI3140
aI7023
aI4064
aI3338
aI8396
aI4859
aI1016
aI9384
aI8197
aI6059
aI4574
aI3046
aI683
aI9157
aI9043
aI7862
aI5897
aI2354
aI4006
aI3260
aI8294
aI7884
aI4000
aI8623
aI4442
aI6927
aI830
aI7238
aI8358
aI8186
aI6978
aI1343
aI1800
aI8991
aI4657
aI3237
aI6058
aI6232
aI718
aI6715
aI4905
aI3404
aI8148
aI5459
aI4524
aI1681
aI127
aI4101
aI101
aI5377
aI6095
aI2917
aI2145
aI8921
aI263
aI1385
aI988
aI1765
aI1825
aI1856
aI5618
aI8907
aI1867
aI2477
aI6205
aI1083
aI9426
aI4825
aI9466
aI825
aI8552
aI1817
aI7343
aI409
aI2374
aI2249
aI5123
aI7951
aI3622
aI9447
aI2625
aI6434
aI4883
aI9063
aI8883
aI7304
aI121
aI1071
aI8668
aI4053
aI5345
aI8179
aI3947
aI4841
aI1904
aI4104
aI5999
aI3695
aI6255
aI2744
aI2375
aI2301
aI3375
aI2183
aI8088
aI8605
aI6789
aI8975
aI7692
aI5039
aI3453
aI3933
aI7162
aI1786
aI2084
aI3008
aI9377
aI6895
aI1733
aI8808
aI3095
aI9056
aI7449
aI4851
aI8443
aI2588
aI4353
aI4197
aI4155
aI8974
aI8029
aI638
aI5300
aI7999
aI3994
aI2017
aI6999
aI9323
aI4425
aI6372
aI4002
aI8257
aI597
aI8013
aI2907
aI2800
aI2439
aI4790
aI4444
aI3843
aI9483
aI5370
aI6499
aI2080
aI5304
aI8416
aI8663
aI5156
aI4335
aI5525
aI5513
aI1537
aI1932
aI4585
aI8369
aI3501
aI8070
aI4063
aI3129
aI6945
aI6081
aI5557
aI4562
aI8053
aI8609
aI961
aI978
aI3995
aI3231
aI4512
aI1410
aI4186
aI6805
aI1494
aI3075
aI5273
aI2148
aI3803
aI3314
aI1364
aI8799
aI6534
aI542
aI7161
aI6171
aI1185
aI779
aI2899
aI1285
aI6426
aI3475
aI3799
aI1426
aI5685
aI803
aI9227
aI8969
aI6813
aI3131
aI2975
aI2465
aI4012
aI6668
aI3241
aI8404
aI9276
aI1915
aI5589
aI4592
aI2585
aI3722
aI3276
aI4210
aI3082
aI2314
aI2395
aI7028
aI5814
aI6022
aI2290
aI1937
aI767
aI7854
aI4702
aI1852
aI3272
aI4708
aI2182
aI401
aI9036
aI3409
aI5989
aI2751
aI2318
aI4045
aI3871
aI3282
aI1775
aI5449
aI3670
aI3301
aI3877
aI5639
aI3468
aI170
aI8
aI4300
aI1246
aI9369
aI3868
aI6260
aI3938
aI5876
aI1339
aI1622
aI7806
aI5058
aI9166
aI9048
aI274
aI592
aI3393
aI8593
aI6632
aI2400
aI6350
aI3224
aI1106
aI2858
aI608
aI7085
aI5788
aI7850
aI7938
aI6489
aI6802
aI1127
aI8247
aI1452
aI4986
aI6657
aI2382
aI3806
aI8373
aI8744
aI5501
aI7130
aI6197
aI3038
aI8129
aI7377
aI4766
aI4117
aI2820
aI6016
aI3353
aI5577
aI8568
aI1475
aI7647
aI9158
aI8249
aI7046
aI4876
aI8262
aI1698
aI2348
aI1530
aI1689
aI5592
aI3399
aI2770
aI708
aI5624
aI6388
aI2230
aI193
aI2463
aI3512
aI3373
aI2619
aI21
aI3273
aI8636
aI6353
aI7040
aI4459
aI8614
aI9326
aI183
aI3441
aI3238
aI993
aI8503
aI9125
aI8331
aI6531
aI4229
aI6843
aI9195
aI7667
aI6765
aI7698
aI5433
aI3979
aI2189
aI5137
aI2073
aI5698
aI3829
aI7776
aI9465
aI1802
aI7769
aI48
aI1546
aI7275
aI3910
aI6613
aI9091
aI3991
aI4223
aI9107
aI6554
aI7678
aI6310
aI1944
aI7088
aI6608
aI461
aI86
aI7790
aI2288
aI9515
aI2131
aI80
aI1218
aI3885
aI2440
aI9127
aI6749
aI1884
aI3246
aI8767
aI4907
aI5818
aI9301
aI3013
aI3617
aI2462
aI6968
aI5324
aI5226
aI3099
aI4321
aI1370
aI1972
aI5294
aI1979
aI7514
aI5269
aI1862
aI4509
aI8250
aI5443
aI9354
aI6965
aI2454
aI9159
aI6068
aI318
aI918
aI8713
aI4922
aI5682
aI514
aI3481
aI7574
aI9479
aI1592
aI4581
aI7401
aI2397
aI2240
aI1013
aI9309
aI9290
aI5
aI7809
aI8960
aI2186
aI7448
aI9180
aI2058
aI1845
aI6381
aI970
aI2586
aI5620
aI5877
aI9372
aI2247
aI8597
aI8874
aI5775
aI3630
aI7299
aI7346
aI7718
aI955
aI6650
aI621
aI734
aI4847
aI4337
aI9155
aI6131
aI4887
aI7213
aI9115
aI2242
aI2232
aI4792
aI3266
aI6773
aI5092
aI5748
aI1652
aI8772
aI8955
aI7583
aI1160
aI117
aI7861
aI6639
aI6060
aI181
aI1115
aI5420
aI8924
aI8117
aI724
aI6263
aI315
aI8610
aI14
aI2847
aI5357
aI8190
aI8507
aI8299
aI2806
aI1434
aI8899
aI7314
aI411
aI6438
aI5920
aI4546
aI1748
aI1857
aI2720
aI9488
aI8019
aI3789
aI7748
aI1186
aI9320
aI9463
aI2457
aI3211
aI197
aI7357
aI7431
aI1596
aI4044
aI4981
aI22
aI2587
aI2222
aI3130
aI6782
aI7177
aI2592
aI5901
aI494
aI6278
aI4978
aI7586
aI250
aI6836
aI844
aI6240
aI8376
aI7234
aI2567
aI4875
aI1070
aI6464
aI6581
aI7171
aI7965
aI5894
aI2278
aI240
aI6458
aI3520
aI5066
aI6234
aI8987
aI5093
aI3824
aI1237
aI7716
aI2681
aI5885
aI7424
aI7015
aI1281
aI657
aI5534
aI2104
aI3407
aI2120
aI4815
aI1371
aI3068
aI8630
aI4519
aI3222
aI6400
aI7119
aI4115
aI2486
aI207
aI7815
aI8433
aI2662
aI1315
aI8647
aI4281
aI3493
aI7092
aI950
aI7166
aI588
aI3814
aI2027
aI2275
aI1432
aI9491
aI5553
aI731
aI7284
aI7198
aI9143
aI4067
aI5933
aI9416
aI3749
aI1247
aI620
aI3715
aI1003
aI7410
aI5522
aI2469
aI695
aI5715
aI4521
aI1129
aI7569
aI6415
aI813
aI6946
aI9132
aI8261
aI4912
aI5176
aI2043
aI7160
aI329
aI2927
aI5926
aI2379
aI798
aI1955
aI8364
aI8470
aI2167
aI3244
aI3607
aI7027
aI9190
aI7233
aI1202
aI7579
aI2298
aI7878
aI6124
aI4728
aI5346
aI8476
aI2251
aI1561
aI2641
aI656
aI47
aI4323
aI7975
aI8882
aI2698
aI4384
aI698
aI8038
aI3427
aI9098
aI3256
aI3951
aI561
aI9100
aI1883
aI5526
aI1135
aI7955
aI1859
aI3251
aI668
aI382
aI2513
aI4544
aI9008
aI5613
aI5571
aI2749
aI120
aI3514
aI6730
aI8738
aI8526
aI1966
aI7597
aI6377
aI8880
aI7123
aI2956
aI1161
aI5888
aI9439
aI6842
aI783
aI3691
aI8201
aI6006
aI7404
aI8317
aI1653
aI3611
aI8575
aI5133
aI1459
aI4385
aI1821
aI2394
aI3234
aI2729
aI3449
aI276
aI5737
aI1188
aI8269
aI7352
aI5931
aI4296
aI6890
aI2362
aI6594
aI4714
aI1659
aI4491
aI3534
aI8816
aI2272
aI7157
aI7784
aI8383
aI4845
aI1965
aI9375
aI3914
aI8156
aI7750
aI6222
aI4817
aI8773
aI4623
aI2433
aI5714
aI2515
aI1496
aI5238
aI4637
aI7923
aI5783
aI5644
aI8845
aI3990
aI443
aI6874
aI7468
aI5914
aI1433
aI605
aI1536
aI4068
aI1779
aI2566
aI7675
aI5752
aI9240
aI5069
aI1935
aI6247
aI4542
aI5464
aI2807
aI4613
aI9459
aI1657
aI2034
aI675
aI1887
aI6680
aI6734
aI5675
aI8555
aI2614
aI6317
aI8145
aI419
aI4133
aI8034
aI1318
aI6602
aI3017
aI7240
aI7073
aI8818
aI2351
aI7881
aI2243
aI8303
aI7663
aI2618
aI9341
aI2125
aI5518
aI5416
aI6488
aI3853
aI8488
aI2582
aI650
aI8564
aI8388
aI6586
aI4209
aI4811
aI6967
aI3738
aI3642
aI8904
aI4121
aI2735
aI3528
aI5900
aI6193
aI4904
aI8411
aI2576
aI5328
aI5840
aI3080
aI5011
aI7849
aI616
aI3201
aI1001
aI6681
aI715
aI1501
aI100
aI7633
aI8625
aI3442
aI9519
aI4737
aI2011
aI7584
aI7150
aI4367
aI1982
aI4538
aI145
aI5311
aI8011
aI2676
aI9237
aI214
aI1669
aI1014
aI5235
aI6336
aI4422
aI3497
aI5757
aI5035
aI4023
aI2307
aI5140
aI5893
aI9381
aI6170
aI3350
aI0
aI8230
aI1558
aI6584
aI4153
aI3905
aI826
aI3935
aI4031
aI3832
aI8182
aI7943
aI1782
aI991
aI5191
aI579
aI1258
aI8774
aI3504
aI7609
aI2904
aI3915
aI5784
aI6248
aI6299
aI6079
aI5791
aI1466
aI6345
aI5162
aI7697
aI3158
aI166
aI7287
aI7083
aI1424
aI7828
aI4499
aI436
aI6316
aI980
aI4610
aI7896
aI7454
aI4652
aI3378
aI8950
aI9258
aI8543
aI823
aI8330
aI6510
aI5833
aI2076
aI2040
aI1048
aI2868
aI7642
aI6057
aI2535
aI2430
aI1970
aI8195
aI7115
aI176
aI9434
aI5183
aI2624
aI9306
aI2659
aI9433
aI1886
aI1005
aI3744
aI8854
aI5558
aI2914
aI427
aI8220
aI6979
aI3103
aI1487
aI1586
aI5612
aI7591
aI8420
aI4662
aI3291
aI1900
aI878
aI6837
aI5154
aI7007
aI337
aI7384
aI9119
aI8361
aI8215
aI5082
aI7407
aI155
aI6283
aI8971
aI585
aI2117
aI4340
aI3857
aI5660
aI6449
aI6718
aI5519
aI8540
aI3061
aI2166
aI7147
aI7395
aI8800
aI2771
aI5910
aI3768
aI9022
aI9303
aI196
aI354
aI7379
aI9444
aI305
aI7228
aI5490
aI9152
aI5645
aI7183
aI5532
aI3196
aI7661
aI7021
aI2233
aI7762
aI2792
aI5005
aI7433
aI1872
aI8968
aI7935
aI4123
aI2819
aI4990
aI916
aI1140
aI4848
aI3840
aI7283
aI4070
aI3206
aI4041
aI2410
aI6117
aI268
aI4482
aI8908
aI2420
aI7341
aI6729
aI2338
aI1471
aI3835
aI543
aI7842
aI3793
aI9266
aI5270
aI4435
aI1770
aI3973
aI6563
aI8168
aI2368
aI328
aI9288
aI8104
aI2016
aI5212
aI8790
aI8741
aI9047
aI700
aI3331
aI4725
aI1572
aI4692
aI7006
aI7261
aI7235
aI7414
aI2692
aI9113
aI417
aI1789
aI599
aI2973
aI8646
aI8681
aI4452
aI7487
aI2715
aI5485
aI8290
aI3327
aI7786
aI7875
aI5415
aI431
aI1929
aI6846
aI8386
aI9273
aI8611
aI151
aI3111
aI2870
aI4857
aI582
aI3457
aI781
aI785
aI1463
aI7502
aI1242
aI9389
aI3118
aI413
aI5090
aI5055
aI2689
aI5367
aI7937
aI141
aI627
aI6538
aI7111
aI7554
aI8876
aI4175
aI6258
aI855
aI7589
aI4162
aI8023
aI925
aI8699
aI7972
aI2605
aI6928
aI9135
aI7521
aI67
aI7219
aI8005
aI4137
aI2419
aI9213
aI5222
aI8813
aI3133
aI5952
aI2204
aI3757
aI5974
aI3239
aI6674
aI6219
aI2919
aI8783
aI3288
aI90
aI1988
aI5956
aI3472
aI5835
aI8522
aI4946
aI1505
aI7558
aI3576
aI2064
aI4868
aI5036
aI2466
aI9249
aI4098
aI3866
aI755
aI1897
aI8169
aI5733
aI2291
aI2896
aI5249
aI5001
aI6201
aI5919
aI3150
aI5175
aI2700
aI5979
aI4439
aI3205
aI3412
aI997
aI6066
aI3731
aI9168
aI670
aI3665
aI2254
aI6986
aI4379
aI5753
aI3699
aI3985
aI11
aI7301
aI2494
aI2553
aI1092
aI8996
aI3110
aI3243
aI2966
aI5984
aI5724
aI104
aI1776
aI8927
aI2468
aI5116
aI5500
aI1478
aI1729
aI5047
aI2637
aI1875
aI9075
aI7168
aI2784
aI1259
aI1734
aI7311
aI2492
aI8596
aI6975
aI8701
aI876
aI1642
aI39
aI3160
aI448
aI8043
aI1864
aI1538
aI5607
aI37
aI3989
aI3098
aI9028
aI2434
aI8240
aI3543
aI5025
aI2963
aI5591
aI8273
aI4391
aI3336
aI6769
aI6077
aI4378
aI9364
aI7804
aI2244
aI9185
aI4496
aI2697
aI2499
aI7169
aI9480
aI2863
aI146
aI6448
aI5809
aI2445
aI4925
aI3097
aI2860
aI3360
aI3169
aI8787
aI2508
aI7059
aI1490
aI7994
aI7490
aI5317
aI8365
aI233
aI4572
aI8458
aI5158
aI3729
aI2648
aI7722
aI8840
aI4754
aI6421
aI6924
aI6517
aI8919
aI6712
aI5239
aI357
aI3460
aI3168
aI5853
aI4816
aI1891
aI1745
aI577
aI1206
aI8565
aI5060
aI4228
aI5647
aI9175
aI241
aI2228
aI6173
aI5040
aI7858
aI1846
aI9032
aI349
aI1026
aI4850
aI6099
aI8590
aI3551
aI5279
aI5086
aI9442
aI2429
aI7759
aI3592
aI5868
aI7876
aI6863
aI9512
aI5344
aI433
aI4525
aI5905
aI2196
aI7337
aI5382
aI8875
aI5483
aI935
aI174
aI5491
aI5248
aI9456
aI6989
aI601
aI4789
aI2013
aI5690
aI1662
aI6987
aI6370
aI3812
aI8267
aI8259
aI4706
aI4289
aI971
aI8558
aI8769
aI510
aI8658
aI6920
aI6694
aI350
aI1666
aI9451
aI2283
aI3488
aI2234
aI3758
aI4283
aI7132
aI5866
aI6411
aI6146
aI9284
aI6495
aI2169
aI1232
aI9254
aI1581
aI8959
aI4168
aI5829
aI4680
aI2042
aI3216
aI959
aI8253
aI2905
aI5164
aI3778
aI6396
aI7479
aI3562
aI5481
aI8087
aI6035
aI3092
aI5708
aI7950
aI6567
aI125
aI5621
aI3346
aI1142
aI4386
aI285
aI8529
aI2657
aI1957
aI1465
aI1756
aI2960
aI1999
aI8587
aI1476
aI4666
aI1497
aI4527
aI4279
aI5205
aI4161
aI845
aI8025
aI8807
aI6804
aI1522
aI374
aI251
aI7302
aI7824
aI9321
aI9194
aI7979
aI6514
aI5508
aI674
aI570
aI53
aI1263
aI1792
aI1041
aI2786
aI3999
aI5160
aI7365
aI1569
aI9346
aI1151
aI5653
aI3188
aI4771
aI2673
aI4536
aI3839
aI4709
aI3603
aI1882
aI7643
aI5243
aI6959
aI6741
aI5781
aI9235
aI7992
aI6487
aI7662
aI8184
aI6696
asg4633
(lp4639
I10928
aI10929
aI10930
aI10931
aI10932
aI10933
aI10934
aI10935
aI10936
aI10937
aI10938
aI10939
aI10940
aI10941
aI10942
aI10943
aI10944
aI10945
aI10946
aI10947
aI10948
aI10949
aI10950
aI10951
aI10952
aI10953
aI10954
aI10955
aI10956
aI10957
aI10958
aI10959
aI10960
aI10961
aI10962
aI10963
aI10964
aI10965
aI10966
aI10967
aI10968
aI10969
aI10970
aI10971
aI10972
aI10973
aI10974
aI10975
aI10976
aI10977
aI10978
aI10979
aI10980
aI10981
aI10982
aI10983
aI10984
aI10985
aI10986
aI10987
aI10988
aI10989
aI10990
aI10991
aI10992
aI10993
aI10994
aI10995
aI10996
aI10997
aI10998
aI10999
aI11000
aI11001
aI11002
aI11003
aI11004
aI11005
aI11006
aI11007
aI11008
aI11009
aI11010
aI11011
aI11012
aI11013
aI11014
aI11015
aI11016
aI11017
aI11018
aI11019
aI11020
aI11021
aI11022
aI11023
aI11024
aI11025
aI11026
aI11027
aI11028
aI11029
aI11030
aI11031
aI11032
aI11033
aI11034
aI11035
aI11036
aI11037
aI11038
aI11039
aI11040
aI11041
aI11042
aI11043
aI11044
aI11045
aI11046
aI11047
aI11048
aI11049
aI11050
aI11051
aI11052
aI11053
aI11054
aI11055
aI11056
aI11057
aI11058
aI11059
aI11060
aI11061
aI11062
aI11063
aI11064
aI11065
aI11066
aI11067
aI11068
aI11069
aI11070
aI11071
aI11072
aI11073
aI11074
aI11075
aI11076
aI11077
aI11078
aI11079
aI11080
aI11081
aI11082
aI11083
aI11084
aI11085
aI11086
aI11087
aI11088
aI11089
aI11090
aI11091
aI11092
aI11093
aI11094
aI11095
aI11096
aI11097
aI11098
aI11099
aI11100
aI11101
aI11102
aI11103
aI11104
aI11105
aI11106
aI11107
aI11108
aI11109
aI11110
aI11111
aI11112
aI11113
aI11114
aI11115
aI11116
aI11117
aI11118
aI11119
aI11120
aI11121
aI11122
aI11123
aI11124
aI11125
aI11126
aI11127
aI11128
aI11129
aI11130
aI11131
aI11132
aI11133
aI11134
aI11135
aI11136
aI11137
aI11138
aI11139
aI11140
aI11141
aI11142
aI11143
aI11144
aI11145
aI11146
aI11147
aI11148
aI11149
aI11150
aI11151
aI11152
aI11153
aI11154
aI11155
aI11156
aI11157
aI11158
aI11159
aI11160
aI11161
aI11162
aI11163
aI11164
aI11165
aI11166
aI11167
aI11168
aI11169
aI11170
aI11171
aI11172
aI11173
aI11174
aI11175
aI11176
aI11177
aI11178
aI11179
aI11180
aI11181
aI11182
aI11183
aI11184
aI11185
aI11186
aI11187
aI11188
aI11189
aI11190
aI11191
aI11192
aI11193
aI11194
aI11195
aI11196
aI11197
aI11198
aI11199
aI11200
aI11201
aI11202
aI11203
aI11204
aI11205
aI11206
aI11207
aI11208
aI11209
aI11210
aI11211
aI11212
aI11213
aI11214
aI11215
aI11216
aI11217
aI11218
aI11219
aI11220
aI11221
aI11222
aI11223
aI11224
aI11225
aI11226
aI11227
aI11228
aI11229
aI11230
aI11231
aI11232
aI11233
aI11234
aI11235
aI11236
aI11237
aI11238
aI11239
aI11240
aI11241
aI11242
aI11243
aI11244
aI11245
aI11246
aI11247
aI11248
aI11249
aI11250
aI11251
aI11252
aI11253
aI11254
aI11255
aI11256
aI11257
aI11258
aI11259
aI11260
aI11261
aI11262
aI11263
aI11264
aI11265
aI11266
aI11267
aI11268
aI11269
aI11270
aI11271
aI11272
aI11273
aI11274
aI11275
aI11276
aI11277
aI11278
aI11279
aI11280
aI11281
aI11282
aI11283
aI11284
aI11285
aI11286
aI11287
aI11288
aI11289
aI11290
aI11291
aI11292
aI11293
aI11294
aI11295
aI11296
aI11297
aI11298
aI11299
aI11300
aI11301
aI11302
aI11303
aI11304
aI11305
aI11306
aI11307
aI11308
aI11309
aI11310
aI11311
aI11312
aI11313
aI11314
aI11315
aI11316
aI11317
aI11318
aI11319
aI11320
aI11321
aI11322
aI11323
aI11324
aI11325
aI11326
aI11327
aI11328
aI11329
aI11330
aI11331
aI11332
aI11333
aI11334
aI11335
aI11336
aI11337
aI11338
aI11339
aI11340
aI11341
aI11342
aI11343
aI11344
aI11345
aI11346
aI11347
aI11348
aI11349
aI11350
aI11351
aI11352
aI11353
aI11354
aI11355
aI11356
aI11357
aI11358
aI11359
aI11360
aI11361
aI11362
aI11363
aI11364
aI11365
aI11366
aI11367
aI11368
aI11369
aI11370
aI11371
aI11372
aI11373
aI11374
aI11375
aI11376
aI11377
aI11378
aI11379
aI11380
aI11381
aI11382
aI11383
aI11384
aI11385
aI11386
aI11387
aI11388
aI11389
aI11390
aI11391
aI11392
aI11393
aI11394
aI11395
aI11396
aI11397
aI11398
aI11399
aI11400
aI11401
aI11402
aI11403
aI11404
aI11405
aI11406
aI11407
aI11408
aI11409
aI11410
aI11411
aI11412
aI11413
aI11414
aI11415
aI11416
aI11417
aI11418
aI11419
aI11420
aI11421
aI11422
aI11423
aI11424
aI11425
aI11426
aI11427
aI11428
aI11429
aI11430
aI11431
aI11432
aI11433
aI11434
aI11435
aI11436
aI11437
aI11438
aI11439
aI11440
aI11441
aI11442
aI11443
aI11444
aI11445
aI11446
aI11447
aI11448
aI11449
aI11450
aI11451
aI11452
aI11453
aI11454
aI11455
aI11456
aI11457
aI11458
aI11459
aI11460
aI11461
aI11462
aI11463
aI11464
aI11465
aI11466
aI11467
aI11468
aI11469
aI11470
aI11471
aI11472
aI11473
aI11474
aI11475
aI11476
aI11477
aI11478
aI11479
aI11480
aI11481
aI11482
aI11483
aI11484
aI11485
aI11486
aI11487
aI11488
aI11489
aI11490
aI11491
aI11492
aI11493
aI11494
aI11495
aI11496
aI11497
aI11498
aI11499
aI11500
aI11501
aI11502
aI11503
aI11504
aI11505
aI11506
aI11507
aI11508
aI11509
aI11510
aI11511
aI11512
aI11513
aI11514
aI11515
aI11516
aI11517
aI11518
aI11519
aI11520
aI11521
aI11522
aI11523
aI11524
aI11525
aI11526
aI11527
aI11528
aI11529
aI11530
aI11531
aI11532
aI11533
aI11534
aI11535
aI11536
aI11537
aI11538
aI11539
aI11540
aI11541
aI11542
aI11543
aI11544
aI11545
aI11546
aI11547
aI11548
aI11549
aI11550
aI11551
aI11552
aI11553
aI11554
aI11555
aI11556
aI11557
aI11558
aI11559
aI11560
aI11561
aI11562
aI11563
aI11564
aI11565
aI11566
aI11567
aI11568
aI11569
aI11570
aI11571
aI11572
aI11573
aI11574
aI11575
aI11576
aI11577
aI11578
aI11579
aI11580
aI11581
aI11582
aI11583
aI11584
aI11585
aI11586
aI11587
aI11588
aI11589
aI11590
aI11591
aI11592
aI11593
aI11594
aI11595
aI11596
aI11597
aI11598
aI11599
aI11600
aI11601
aI11602
aI11603
aI11604
aI11605
aI11606
aI11607
aI11608
aI11609
aI11610
aI11611
aI11612
aI11613
aI11614
aI11615
aI11616
aI11617
aI11618
aI11619
aI11620
aI11621
aI11622
aI11623
aI11624
aI11625
aI11626
aI11627
aI11628
aI11629
aI11630
aI11631
aI11632
aI11633
aI11634
aI11635
aI11636
aI11637
aI11638
aI11639
aI11640
aI11641
aI11642
aI11643
aI11644
aI11645
aI11646
aI11647
aI11648
aI11649
aI11650
aI11651
aI11652
aI11653
aI11654
aI11655
aI11656
aI11657
aI11658
aI11659
aI11660
aI11661
aI11662
aI11663
aI11664
aI11665
aI11666
aI11667
aI11668
aI11669
aI11670
aI11671
aI11672
aI11673
aI11674
aI11675
aI11676
aI11677
aI11678
aI11679
aI11680
aI11681
aI11682
aI11683
aI11684
aI11685
aI11686
aI11687
aI11688
aI11689
aI11690
aI11691
aI11692
aI11693
aI11694
aI11695
aI11696
aI11697
aI11698
aI11699
aI11700
aI11701
aI11702
aI11703
aI11704
aI11705
aI11706
aI11707
aI11708
aI11709
aI11710
aI11711
aI11712
aI11713
aI11714
aI11715
aI11716
aI11717
aI11718
aI11719
aI11720
aI11721
aI11722
aI11723
aI11724
aI11725
aI11726
aI11727
aI11728
aI11729
aI11730
aI11731
aI11732
aI11733
aI11734
aI11735
aI11736
aI11737
aI11738
aI11739
aI11740
aI11741
aI11742
aI11743
aI11744
aI11745
aI11746
aI11747
aI11748
aI11749
aI11750
aI11751
aI11752
aI11753
aI11754
aI11755
aI11756
aI11757
aI11758
aI11759
aI11760
aI11761
aI11762
aI11763
aI11764
aI11765
aI11766
aI11767
aI11768
aI11769
aI11770
aI11771
aI11772
aI11773
aI11774
aI11775
aI11776
aI11777
aI11778
aI11779
aI11780
aI11781
aI11782
aI11783
aI11784
aI11785
aI11786
aI11787
aI11788
aI11789
aI11790
aI11791
aI11792
aI11793
aI11794
aI11795
aI11796
aI11797
aI11798
aI11799
aI11800
aI11801
aI11802
aI11803
aI11804
aI11805
aI11806
aI11807
aI11808
aI11809
aI11810
aI11811
aI11812
aI11813
aI11814
aI11815
aI11816
aI11817
aI11818
aI11819
aI11820
aI11821
aI11822
aI11823
aI11824
aI11825
aI11826
aI11827
aI11828
aI11829
aI11830
aI11831
aI11832
aI11833
aI11834
aI11835
aI11836
aI11837
aI11838
aI11839
aI11840
aI11841
aI11842
aI11843
aI11844
aI11845
aI11846
aI11847
aI11848
aI11849
aI11850
aI11851
aI11852
aI11853
aI11854
aI11855
aI11856
aI11857
aI11858
aI11859
aI11860
aI11861
aI11862
aI11863
aI11864
aI11865
aI11866
aI11867
aI11868
aI11869
aI11870
aI11871
aI11872
aI11873
aI11874
aI11875
aI11876
aI11877
aI11878
aI11879
aI11880
aI11881
aI11882
aI11883
aI11884
aI11885
aI11886
aI11887
aI11888
aI11889
aI11890
aI11891
aI11892
aI11893
aI11894
aI11895
aI11896
aI11897
aI11898
aI11899
aI11900
aI11901
aI11902
aI11903
aI11904
aI11905
aI11906
aI11907
aI11908
aI11909
aI11910
aI11911
aI11912
aI11913
aI11914
aI11915
aI11916
aI11917
aI11918
aI11919
aI11920
aI11921
aI11922
aI11923
aI11924
aI11925
aI11926
aI11927
aI11928
aI11929
aI11930
aI11931
aI11932
aI11933
aI11934
aI11935
aI11936
aI11937
aI11938
aI11939
aI11940
aI11941
aI11942
aI11943
aI11944
aI11945
aI11946
aI11947
aI11948
aI11949
aI11950
aI11951
aI11952
aI11953
aI11954
aI11955
aI11956
aI11957
aI11958
aI11959
aI11960
aI11961
aI11962
aI11963
aI11964
aI11965
aI11966
aI11967
aI11968
aI11969
aI11970
aI11971
aI11972
aI11973
aI11974
aI11975
aI11976
aI11977
aI11978
aI11979
aI11980
aI11981
aI11982
aI11983
aI11984
aI11985
aI11986
aI11987
aI11988
aI11989
aI11990
aI11991
aI11992
aI11993
aI11994
aI11995
aI11996
aI11997
aI11998
aI11999
aI12000
aI12001
aI12002
aI12003
aI12004
aI12005
aI12006
aI12007
aI12008
aI12009
aI12010
aI12011
aI12012
aI12013
aI12014
aI12015
aI12016
aI12017
aI12018
aI12019
aI12020
aI12021
aI12022
aI12023
aI12024
aI12025
aI12026
aI12027
aI12028
aI12029
aI12030
aI12031
aI12032
aI12033
aI12034
aI12035
aI12036
aI12037
aI12038
aI12039
aI12040
aI12041
aI12042
aI12043
aI12044
aI12045
aI12046
aI12047
aI12048
aI12049
aI12050
aI12051
aI12052
aI12053
aI12054
aI12055
aI12056
aI12057
aI12058
aI12059
aI12060
aI12061
aI12062
aI12063
aI12064
aI12065
aI12066
aI12067
aI12068
aI12069
aI12070
aI12071
aI12072
aI12073
aI12074
aI12075
aI12076
aI12077
aI12078
aI12079
aI12080
aI12081
aI12082
aI12083
aI12084
aI12085
aI12086
aI12087
aI12088
aI12089
aI12090
aI12091
aI12092
aI12093
aI12094
aI12095
aI12096
aI12097
aI12098
aI12099
aI12100
aI12101
aI12102
aI12103
aI12104
aI12105
aI12106
aI12107
aI12108
aI12109
aI12110
aI12111
aI12112
aI12113
aI12114
aI12115
aI12116
aI12117
aI12118
aI12119
aI12120
aI12121
aI12122
aI12123
aI12124
aI12125
aI12126
aI12127
aI12128
aI12129
aI12130
aI12131
aI12132
aI12133
aI12134
aI12135
aI12136
aI12137
aI12138
aI12139
aI12140
aI12141
aI12142
aI12143
aI12144
aI12145
aI12146
aI12147
aI12148
aI12149
aI12150
aI12151
aI12152
aI12153
aI12154
aI12155
aI12156
aI12157
aI12158
aI12159
aI12160
aI12161
aI12162
aI12163
aI12164
aI12165
aI12166
aI12167
aI12168
aI12169
aI12170
aI12171
aI12172
aI12173
aI12174
aI12175
aI12176
aI12177
aI12178
aI12179
aI12180
aI12181
aI12182
aI12183
aI12184
aI12185
aI12186
aI12187
aI12188
aI12189
aI12190
aI12191
aI12192
aI12193
aI12194
aI12195
aI12196
aI12197
aI12198
aI12199
aI12200
aI12201
aI12202
aI12203
aI12204
aI12205
aI12206
aI12207
aI12208
aI12209
aI12210
aI12211
aI12212
aI12213
aI12214
aI12215
aI12216
aI12217
aI12218
aI12219
aI12220
aI12221
aI12222
aI12223
aI12224
aI12225
aI12226
aI12227
aI12228
aI12229
aI12230
aI12231
aI12232
aI12233
aI12234
aI12235
aI12236
aI12237
aI12238
aI12239
aI12240
aI12241
aI12242
aI12243
aI12244
aI12245
aI12246
aI12247
aI12248
aI12249
aI12250
aI12251
aI12252
aI12253
aI12254
aI12255
aI12256
aI12257
aI12258
aI12259
aI12260
aI12261
aI12262
aI12263
aI12264
aI12265
aI12266
aI12267
aI12268
aI12269
aI12270
aI12271
aI12272
aI12273
aI12274
aI12275
aI12276
aI12277
aI12278
aI12279
aI12280
aI12281
aI12282
aI12283
aI12284
aI12285
aI12286
aI12287
aI12288
aI12289
aI12290
aI12291
aI12292
aI12293
aI12294
aI12295
aI12296
aI12297
aI12298
aI12299
aI12300
aI12301
aI12302
aI12303
aI12304
aI12305
aI12306
aI12307
aI12308
aI12309
aI12310
aI12311
aI12312
aI12313
aI12314
aI12315
aI12316
aI12317
aI12318
aI12319
aI12320
aI12321
aI12322
aI12323
aI12324
aI12325
aI12326
aI12327
aI12328
aI12329
aI12330
aI12331
aI12332
aI12333
aI12334
aI12335
aI12336
aI12337
aI12338
aI12339
aI12340
aI12341
aI12342
aI12343
aI12344
aI12345
aI12346
aI12347
aI12348
aI12349
aI12350
aI12351
aI12352
aI12353
aI12354
aI12355
aI12356
aI12357
aI12358
aI12359
aI12360
aI12361
aI12362
aI12363
aI12364
aI12365
aI12366
aI12367
aI12368
aI12369
aI12370
aI12371
aI12372
aI12373
aI12374
aI12375
aI12376
aI12377
aI12378
aI12379
aI12380
aI12381
aI12382
aI12383
aI12384
aI12385
aI12386
aI12387
aI12388
aI12389
aI12390
aI12391
aI12392
aI12393
aI12394
aI12395
aI12396
aI12397
aI12398
aI12399
aI12400
aI12401
aI12402
aI12403
aI12404
aI12405
aI12406
aI12407
aI12408
aI12409
aI12410
aI12411
aI12412
aI12413
aI12414
aI12415
aI12416
aI12417
aI12418
aI12419
aI12420
aI12421
aI12422
aI12423
aI12424
aI12425
aI12426
aI12427
aI12428
aI12429
aI12430
aI12431
aI12432
aI12433
aI12434
aI12435
aI12436
aI12437
aI12438
aI12439
aI12440
aI12441
aI12442
aI12443
aI12444
aI12445
aI12446
aI12447
aI12448
aI12449
aI12450
aI12451
aI12452
aI12453
aI12454
aI12455
aI12456
aI12457
aI12458
aI12459
aI12460
aI12461
aI12462
aI12463
aI12464
aI12465
aI12466
aI12467
aI12468
aI12469
aI12470
aI12471
aI12472
aI12473
aI12474
aI12475
aI12476
aI12477
aI12478
aI12479
aI12480
aI12481
aI12482
aI12483
aI12484
aI12485
aI12486
aI12487
aI12488
aI12489
aI12490
aI12491
aI12492
aI12493
aI12494
aI12495
aI12496
aI12497
aI12498
aI12499
aI12500
aI12501
aI12502
aI12503
aI12504
aI12505
aI12506
aI12507
aI12508
aI12509
aI12510
aI12511
aI12512
aI12513
aI12514
aI12515
aI12516
aI12517
aI12518
aI12519
aI12520
aI12521
aI12522
aI12523
aI12524
aI12525
aI12526
aI12527
aI12528
aI12529
aI12530
aI12531
aI12532
aI12533
aI12534
aI12535
aI12536
aI12537
aI12538
aI12539
aI12540
aI12541
aI12542
aI12543
aI12544
aI12545
aI12546
aI12547
aI12548
aI12549
aI12550
aI12551
aI12552
aI12553
aI12554
aI12555
aI12556
aI12557
aI12558
aI12559
aI12560
aI12561
ass.