(dp1
S'opt'
p2
ccopy_reg
_reconstructor
p3
(cargparse
Namespace
p4
c__builtin__
object
p5
NtRp6
(dp7
S'grad_clip'
p8
F0.10000000000000001
sS'vocab_size'
p9
I2294
sS'scheduled_sampling_increase_prob'
p10
F0.050000000000000003
sS'scheduled_sampling_max_prob'
p11
F0.25
sS'scheduled_sampling_increase_every'
p12
I5
sS'fc_feat_size'
p13
I2048
sS'input_json'
p14
S'data/combined_out.json'
p15
sS'start_from'
p16
NsS'use_att'
p17
I01
sS'current_lr'
p18
F8.3886080000000049e-05
sS'seq_per_img'
p19
I5
sS'num_layers'
p20
I1
sS'max_epochs'
p21
I30
sS'weight_decay'
p22
I0
sS'norm_att_feat'
p23
I0
sS'id'
p24
S'att2in2_diff'
p25
sS'checkpoint_path'
p26
S'log_att2in2_diff'
p27
sS'learning_rate_decay_every'
p28
I3
sS'use_bn'
p29
I0
sS'input_encoding_size'
p30
I512
sS'att_feat_size'
p31
I2048
sS'input_fc_dir'
p32
S'data/combined_out_fc'
p33
sS'caption_model'
p34
S'att2in2'
p35
sS'use_box'
p36
I0
sS'norm_box_feat'
p37
I0
sS'rnn_type'
p38
S'lstm'
p39
sS'scheduled_sampling_start'
p40
I0
sS'cider_reward_weight'
p41
I1
sS'optim'
p42
S'adam'
p43
sS'train_only'
p44
I0
sS'learning_rate'
p45
F0.00050000000000000001
sS'input_box_dir'
p46
S'data/cocotalk_box'
p47
sS'batch_size'
p48
I10
sS'drop_prob_lm'
p49
F0.5
sS'self_critical_after'
p50
I-1
sS'att_hid_size'
p51
I512
sS'losses_log_every'
p52
I25
sS'learning_rate_decay_rate'
p53
F0.80000000000000004
sS'ss_prob'
p54
F0.25
sS'logit_layers'
p55
I1
sS'rnn_size'
p56
I512
sS'optim_beta'
p57
F0.999
sS'input_att_dir'
p58
S'data/combined_out_att'
p59
sS'learning_rate_decay_start'
p60
I0
sS'save_checkpoint_every'
p61
I6000
sS'cached_tokens'
p62
S'coco-train-idxs'
p63
sS'val_images_use'
p64
I5000
sS'seq_length'
p65
I60
sS'optim_alpha'
p66
F0.90000000000000002
sS'beam_size'
p67
I1
sS'input_label_h5'
p68
S'data/combined_out_label.h5'
p69
sS'language_eval'
p70
I0
sS'optim_epsilon'
p71
F1e-08
sS'load_best_score'
p72
I1
sS'bleu_reward_weight'
p73
I0
sbsS'vocab'
p74
(dp75
V344
p76
Vask
p77
sV345
p78
Vhowever
p79
sV346
p80
Vloading
p81
sV347
p82
Vwear
p83
sV340
p84
Vdrawn
p85
sV341
p86
Vpeopke
p87
sV342
p88
Vrims
p89
sV343
p90
Vrolled
p91
sV348
p92
Vnews
p93
sV349
p94
Vconvertible
p95
sV1653
p96
Vtrucking
p97
sV298
p98
Vstepping
p99
sV299
p100
Vambre
p101
sV296
p102
Vcolors
p103
sV297
p104
Vsown
p105
sV294
p106
Vdeparting
p107
sV295
p108
Varrayed
p109
sV292
p110
Vdot
p111
sV293
p112
Vsaying
p113
sV290
p114
Vpoints
p115
sV291
p116
Vshadowed
p117
sV2147
p118
Vgestures
p119
sV270
p120
Vsubjects
p121
sV271
p122
Vdoors
p123
sV272
p124
Vhatch
p125
sV273
p126
Vrider
p127
sV274
p128
Veven
p129
sV275
p130
Vvehichle
p131
sV276
p132
Vthough
p133
sV277
p134
Vobject
p135
sV278
p136
Vdebsenis
p137
sV279
p138
Vfencing
p139
sV1780
p140
Vleg
p141
sV2146
p142
Vpelop
p143
sV2268
p144
Vpic
p145
sV2269
p146
Vsiting
p147
sV2262
p148
Vplaced
p149
sV2263
p150
Vbelow
p151
sV2260
p152
Vplaces
p153
sV2261
p154
Vshrunk
p155
sV2266
p156
Vint
p157
sV2267
p158
Vrecognize
p159
sV2264
p160
Vpiece
p161
sV2265
p162
Vbegun
p163
sV1781
p164
Vgathered
p165
sV2189
p166
Vsized
p167
sV108
p168
Vexample
p169
sV109
p170
Vcone
p171
sV102
p172
Vdpicture
p173
sV103
p174
Vobstacle
p175
sV100
p176
Vpeolpe
p177
sV101
p178
Vthther
p179
sV106
p180
Vim
p181
sV107
p182
Vmy
p183
sV104
p184
Vbluetruck
p185
sV105
p186
Velbow
p187
sV2046
p188
Vstripes
p189
sV2047
p190
Vlikely
p191
sV2044
p192
Vcube
p193
sV2045
p194
Vwatching
p195
sV2042
p196
Vhe
p197
sV2043
p198
Vphotographs
p199
sV2040
p200
Vrge
p201
sV2041
p202
Vriding
p203
sV2048
p204
Vautos
p205
sV2049
p206
Vones
p207
sV1372
p208
Vdue
p209
sV2038
p210
Vhadn
p211
sV1001
p212
Voutdoor
p213
sV1210
p214
Vburgundy
p215
sV1375
p216
Vbookbag
p217
sV1655
p218
Vmidturn
p219
sV1374
p220
Vomits
p221
sV99
p222
Vroof
p223
sV98
p224
Vwork
p225
sV91
p226
Vphone
p227
sV90
p228
Vtrousers
p229
sV93
p230
Vblocking
p231
sV92
p232
Vhold
p233
sV95
p234
Vme
p235
sV94
p236
Vmust
p237
sV97
p238
Vjoin
p239
sV96
p240
Vcamra
p241
sV1623
p242
Vback
p243
sV1622
p244
Vsighn
p245
sV1621
p246
Vdiffenence
p247
sV1620
p248
Vcones
p249
sV1627
p250
Vsight
p251
sV1626
p252
Vpalm
p253
sV1625
p254
Vadded
p255
sV1624
p256
Vlitter
p257
sV1999
p258
Vviewed
p259
sV1998
p260
Vclearly
p261
sV1629
p262
Vpyolons
p263
sV1377
p264
Vdont
p265
sV559
p266
Vrolling
p267
sV558
p268
Vtjis
p269
sV555
p270
Vpicture
p271
sV554
p272
Vvanished
p273
sV557
p274
Vccar
p275
sV556
p276
Vhandicap
p277
sV551
p278
Vhanded
p279
sV550
p280
Vne
p281
sV553
p282
Vholding
p283
sV552
p284
Vtim
p285
sV1439
p286
Vstands
p287
sV1199
p288
Vdisplays
p289
sV1198
p290
Vpast
p291
sV1191
p292
Vgardener
p293
sV1190
p294
Vsand
p295
sV1193
p296
Vteh
p297
sV1192
p298
Vsmall
p299
sV1195
p300
Vhaas
p301
sV1194
p302
Vfence
p303
sV1197
p304
Vtee
p305
sV1196
p306
Vstreets
p307
sV1759
p308
Vavilable
p309
sV1758
p310
Vfewer
p311
sV1757
p312
Vdiffernces
p313
sV1756
p314
Vpositions
p315
sV1755
p316
Vexits
p317
sV1754
p318
Vcrowed
p319
sV1753
p320
Vposture
p321
sV1752
p322
Vcontinued
p323
sV1751
p324
Vsombody
p325
sV1750
p326
Vshopes
p327
sV1177
p328
Vsitting
p329
sV1176
p330
Vwoman
p331
sV1175
p332
Vpaying
p333
sV1174
p334
Vroadway
p335
sV1173
p336
Vte
p337
sV1172
p338
Vfountain
p339
sV1171
p340
Vcrimson
p341
sV1170
p342
Vth
p343
sV1179
p344
Vfat
p345
sV1178
p346
Vvery
p347
sV511
p348
Vwering
p349
sV510
p350
Vdown
p351
sV513
p352
Vole
p353
sV1285
p354
Vhorizontal
p355
sV1284
p356
Vcoming
p357
sV1287
p358
Va
sV512
p359
Vlave
p360
sV1281
p361
V_there
p362
sV1280
p363
Vdifferent
p364
sV1283
p365
Vstreetlamp
p366
sV1282
p367
Vlighting
p368
sV1003
p369
Vtip
p370
sV879
p371
Vworkman
p372
sV1289
p373
Vcrowded
p374
sV1288
p375
Vshort
p376
sV514
p377
Vinitial
p378
sV1579
p379
Vlower
p380
sV1578
p381
Vhows
p382
sV689
p383
Vmad
p384
sV688
p385
Vparkingl
p386
sV685
p387
Vstaris
p388
sV684
p389
Vspot
p390
sV687
p391
V4th
p392
sV686
p393
Vperosn
p394
sV681
p395
Vstaircase
p396
sV680
p397
Vexplorer
p398
sV683
p399
Vmay
p400
sV682
p401
Vhuge
p402
sV458
p403
Vwindowed
p404
sV1226
p405
Vadiffernt
p406
sV621
p407
Valong
p408
sV873
p409
Vget
p410
sV1224
p411
Vsearch
p412
sV1223
p413
Vhass
p414
sV1222
p415
Vshops
p416
sV1221
p417
Vdirections
p418
sV1220
p419
Vtrunk
p420
sV407
p421
Vlineon
p422
sV406
p423
Vgrown
p424
sV405
p425
Vif
p426
sV404
p427
Vdisappear
p428
sV403
p429
Vic
p430
sV402
p431
Vight
p432
sV401
p433
Via
p434
sV400
p435
Vin
p436
sV1379
p437
Vnumber
p438
sV1378
p439
Vforwards
p440
sV1342
p441
Vexpect
p442
sV409
p443
Vmake
p444
sV408
p445
Voccupied
p446
sV453
p447
Vcrosswal
p448
sV454
p449
Vperoson
p450
sV2148
p451
Vtighter
p452
sV455
p453
Vadvances
p454
sV1346
p455
Vp
sV1347
p456
Vsurrounded
p457
sV379
p458
Vplay
p459
sV378
p460
Vstaors
p461
sV371
p462
Ventered
p463
sV370
p464
Vmuch
p465
sV373
p466
Vthrew
p467
sV372
p468
Vcontainers
p469
sV375
p470
Vworker
p471
sV374
p472
Vtabled
p473
sV377
p474
Vchild
p475
sV376
p476
Vdiriving
p477
sV393
p478
Vir
p479
sV392
p480
Vis
p481
sV391
p482
Vgpme
p483
sV390
p484
Vcane
p485
sV397
p486
Vbrake
p487
sV396
p488
Vcant
p489
sV395
p490
Vit
p491
sV394
p492
Vtress
p493
sV399
p494
Vtransfarmers
p495
sV398
p496
Vcans
p497
sV895
p498
Vbetween
p499
sV245
p500
Vcentered
p501
sV244
p502
Vlegs
p503
sV247
p504
Vnearing
p505
sV246
p506
Vtook
p507
sV241
p508
Vton
p509
sV240
p510
Vtot
p511
sV243
p512
Vflagpole
p513
sV242
p514
Vtoo
p515
sV249
p516
Vdistance
p517
sV248
p518
Vsomewhat
p519
sV2275
p520
Vplanting
p521
sV2274
p522
Vbalcony
p523
sV2277
p524
Vcompared
p525
sV2276
p526
Vtick
p527
sV2271
p528
Vboardwalk
p529
sV2270
p530
Vmaroon
p531
sV2273
p532
Vcolur
p533
sV2272
p534
Vcarpark
p535
sV2279
p536
Vpacks
p537
sV2278
p538
Vdressed
p539
sV2198
p540
Vhair
p541
sV179
p542
Vquadrangle
p543
sV178
p544
Vshadows
p545
sV177
p546
Vsilver
p547
sV176
p548
Vthey
p549
sV175
p550
Voneis
p551
sV174
p552
Vbreak
p553
sV173
p554
Vthee
p555
sV172
p556
Vthem
p557
sV171
p558
Vthen
p559
sV170
p560
Vversus
p561
sV2051
p562
Vstriped
p563
sV1502
p564
Vmissing
p565
sV2053
p566
Vgray
p567
sV2052
p568
Vareas
p569
sV2055
p570
Vafterimage
p571
sV2054
p572
Vtrucks
p573
sV2057
p574
Vpictured
p575
sV1503
p576
Vinitially
p577
sV2059
p578
Vlooks
p579
sV2058
p580
Vcontain
p581
sV1500
p582
Vcreating
p583
sV1501
p584
Vengaged
p585
sV1506
p586
Vdistinguish
p587
sV1507
p588
Vbronze
p589
sV1367
p590
Vpairs
p591
sV1504
p592
Vligts
p593
sV1505
p594
Voutfit
p595
sV2157
p596
Vposition
p597
sV1227
p598
Vallows
p599
sV1977
p600
Vnobody
p601
sV1976
p602
Vreversed
p603
sV659
p604
Vcan
p605
sV1975
p606
Vshorts
p607
sV1974
p608
Vgear
p609
sV1973
p610
Vpaved
p611
sV1972
p612
Vrigt
p613
sV1971
p614
Vfinal
p615
sV1970
p616
Vmessing
p617
sV1968
p618
Vmotorcyle
p619
sV1969
p620
Vtravelled
p621
sV1618
p622
Vindividuals
p623
sV1619
p624
Vsidedwalk
p625
sV1616
p626
Vvechicles
p627
sV1617
p628
Vsignal
p629
sV1614
p630
Vd
sV1615
p631
Vsemi
p632
sV1612
p633
Vbit
p634
sV1613
p635
Vvests
p636
sV1610
p637
Vmidle
p638
sV1611
p639
Vshading
p640
sV1985
p641
Vbed
p642
sV1768
p643
Vpicked
p644
sV1769
p645
Valtima
p646
sV1762
p647
Vnoted
p648
sV1763
p649
Vlocate
p650
sV1760
p651
Vanothr
p652
sV1761
p653
Vsdewalk
p654
sV1766
p655
Vvideo
p656
sV1767
p657
Vtraveling
p658
sV1764
p659
Vsmaller
p660
sV1765
p661
Vwaking
p662
sV1142
p663
Voesn
p664
sV1143
p665
Vseparate
p666
sV1140
p667
Vyou
p668
sV1141
p669
Vtrash
p670
sV1146
p671
Vm
sV1147
p672
Vincludes
p673
sV1144
p674
Vstudents
p675
sV1145
p676
Vsymbol
p677
sV1148
p678
Vwaving
p679
sV1149
p680
Vincluded
p681
sV692
p682
Veighth
p683
sV693
p684
Vman
p685
sV690
p686
Vsuch
p687
sV691
p688
Vguys
p689
sV696
p690
Vmaybe
p691
sV697
p692
Vwheelchair
p693
sV694
p694
Vbranches
p695
sV695
p696
Vwaist
p697
sV698
p698
Vquadrant
p699
sV699
p700
Vsi
p701
sV1548
p702
Vplants
p703
sV1549
p704
Vhandling
p705
sV542
p706
Vexist
p707
sV543
p708
Vshit
p709
sV540
p710
Vstadnign
p711
sV541
p712
Vcovers
p713
sV546
p714
Vno
p715
sV547
p716
Vna
p717
sV544
p718
Vlooked
p719
sV545
p720
Vmarking
p721
sV548
p722
Vwhereas
p723
sV549
p724
Vwhen
p725
sV1782
p726
Vpushing
p727
sV1783
p728
Vobjects
p729
sV1784
p730
Vlet
p731
sV1785
p732
Vothers
p733
sV1786
p734
Vextreme
p735
sV1787
p736
Vcyclist
p737
sV414
p738
Vincorrectly
p739
sV415
p740
Vseveral
p741
sV416
p742
Vcouple
p743
sV417
p744
Vwheel
p745
sV410
p746
Vbiege
p747
sV411
p748
Vbeside
p749
sV412
p750
Vcomplex
p751
sV413
p752
Vsplit
p753
sV1384
p754
Vapproximately
p755
sV1385
p756
Vdiffer
p757
sV1386
p758
Vprople
p759
sV1387
p760
Vautomobile
p761
sV418
p762
Vtops
p763
sV419
p764
Vrain
p765
sV1382
p766
Vslighltly
p767
sV1383
p768
Vdone
p769
sV368
p770
Vbeen
p771
sV369
p772
Vquickly
p773
sV366
p774
Vfro
p775
sV367
p776
Vthree
p777
sV364
p778
Vproceeded
p779
sV365
p780
Vfrist
p781
sV362
p782
Vloaded
p783
sV363
p784
Vheadlights
p785
sV360
p786
V2nd
p787
sV361
p788
Vwider
p789
sV380
p790
Veast
p791
sV381
p792
Vtank
p793
sV382
p794
Vahead
p795
sV383
p796
Vreddish
p797
sV384
p798
Vn
sV385
p799
Vweren
p800
sV386
p801
Vsuppose
p802
sV387
p803
Vstopping
p804
sV388
p805
Vcab
p806
sV389
p807
Vseven
p808
sV2190
p809
Vgarage
p810
sV2191
p811
Vbecome
p812
sV258
p813
Vtalking
p814
sV259
p815
Vinfront
p816
sV2194
p817
Vshed
p818
sV2195
p819
Vbecause
p820
sV2196
p821
Vglare
p822
sV2197
p823
Vnotices
p824
sV252
p825
Vboard
p826
sV253
p827
Vseated
p828
sV250
p829
Vshowed
p830
sV251
p831
Vtree
p832
sV256
p833
Vmini
p834
sV257
p835
Vrunner
p836
sV254
p837
Vfriend
p838
sV255
p839
Vlampstand
p840
sV2200
p841
Vhome
p842
sV2201
p843
Vthereis
p844
sV2202
p845
Vtransport
p846
sV2203
p847
Vleaf
p848
sV2204
p849
Vlean
p850
sV2205
p851
Vmarkers
p852
sV2206
p853
Vfedex
p854
sV2207
p855
Vshelter
p856
sV2208
p857
Vdoes
p858
sV2209
p859
Vbelore
p860
sV1679
p861
Vproperly
p862
sV1849
p863
Vpulling
p864
sV1848
p865
Vvisisble
p866
sV168
p867
Valking
p868
sV169
p869
Vprius
p870
sV164
p871
Vdiffrent
p872
sV165
p873
Vbulding
p874
sV166
p875
Vdifferently
p876
sV167
p877
Vhidden
p878
sV160
p879
Vmiddel
p880
sV161
p881
Vpersonal
p882
sV162
p883
Vbringing
p884
sV163
p885
Vbackpack
p886
sV1842
p887
Vbend
p888
sV1841
p889
Vdrops
p890
sV1840
p891
Vclosing
p892
sV678
p893
Vpathway
p894
sV679
p895
Vstaying
p896
sV1814
p897
Vthemselves
p898
sV1815
p899
Vgery
p900
sV1816
p901
Vmorehumans
p902
sV1817
p903
Vsort
p904
sV1810
p905
Vfew
p906
sV1811
p907
Vcamera
p908
sV1812
p909
Vintstead
p910
sV1813
p911
Vvehicle
p912
sV1818
p913
Vyelow
p914
sV1819
p915
Vstarted
p916
sV670
p917
Vpink
p918
sV671
p919
Vdiscussion
p920
sV1609
p921
Vshowing
p922
sV1608
p923
Vbig
p924
sV1979
p925
Vpicrues
p926
sV1978
p927
Vbotom
p928
sV1601
p929
Vlfet
p930
sV1600
p931
Vbollard
p932
sV1603
p933
Vunloading
p934
sV1602
p935
Vremaining
p936
sV1605
p937
Vvendor
p938
sV1604
p939
Vbin
p940
sV1607
p941
Vformat
p942
sV1606
p943
Vlacking
p944
sV809
p945
Vthan
p946
sV808
p947
Vflowers
p948
sV803
p949
Vthat
p950
sV802
p951
Vmostly
p952
sV801
p953
Veyes
p954
sV800
p955
Vlingering
p956
sV807
p957
Vquad
p958
sV806
p959
Vcorning
p960
sV805
p961
Vreceded
p962
sV804
p963
Vhumans
p964
sV1775
p965
Vobvious
p966
sV1774
p967
Vflowing
p968
sV1777
p969
Vwaling
p970
sV1776
p971
Vbird
p972
sV1771
p973
Vwaiting
p974
sV1770
p975
Vcell
p976
sV1773
p977
Vanther
p978
sV1772
p979
Vpoles
p980
sV1779
p981
Vstance
p982
sV1778
p983
Vbody
p984
sV608
p985
Vshirts
p986
sV1159
p987
Vpointing
p988
sV1158
p989
Vsince
p990
sV1155
p991
Vstarting
p992
sV1154
p993
Vmass
p994
sV1157
p995
Vall
p996
sV1156
p997
Voriginal
p998
sV1151
p999
Vcurve
p1000
sV1150
p1001
Vbuilding
p1002
sV1153
p1003
Vsewer
p1004
sV1152
p1005
Vhaving
p1006
sV1555
p1007
Vwhile
p1008
sV1554
p1009
Vpace
p1010
sV1551
p1011
Vsolid
p1012
sV1550
p1013
Vlook
p1014
sV1553
p1015
Vstraight
p1016
sV1552
p1017
Vfurthur
p1018
sV59
p1019
Vitems
p1020
sV58
p1021
Vluggage
p1022
sV1557
p1023
Vleaning
p1024
sV1556
p1025
Vbarricade
p1026
sV55
p1027
Vpath
p1028
sV54
p1029
Vcatpured
p1030
sV57
p1031
Vkids
p1032
sV56
p1033
Vdry
p1034
sV51
p1035
Vhere
p1036
sV50
p1037
Vmen
p1038
sV53
p1039
Vwalkign
p1040
sV52
p1041
Vmet
p1042
sV537
p1043
Vpassenger
p1044
sV536
p1045
Vlorry
p1046
sV535
p1047
Vloitering
p1048
sV534
p1049
Vconed
p1050
sV533
p1051
Vattached
p1052
sV532
p1053
Vpeson
p1054
sV531
p1055
Vslighyly
p1056
sV530
p1057
Vpavilion
p1058
sV539
p1059
Vsticks
p1060
sV538
p1061
Vtrio
p1062
sV1558
p1063
Vpack
p1064
sV429
p1065
Vthe
p1066
sV428
p1067
Vgame
p1068
sV1399
p1069
Vpark
p1070
sV1398
p1071
Vpositons
p1072
sV421
p1073
Vtunk
p1074
sV420
p1075
Vhand
p1076
sV423
p1077
Vnit
p1078
sV422
p1079
Vcaution
p1080
sV425
p1081
Vkept
p1082
sV424
p1083
Vkid
p1084
sV427
p1085
Vths
p1086
sV426
p1087
Vpicure
p1088
sV2183
p1089
Vintersection
p1090
sV2182
p1091
Vimmediately
p1092
sV2181
p1093
Vbottoms
p1094
sV2180
p1095
Vknow
p1096
sV2187
p1097
Vchairs
p1098
sV2186
p1099
Vlike
p1100
sV229
p1101
Vdisappearing
p1102
sV228
p1103
Vwalkers
p1104
sV227
p1105
Vpuck
p1106
sV226
p1107
Vnho
p1108
sV225
p1109
Vfeatures
p1110
sV224
p1111
Valready
p1112
sV223
p1113
Vonto
p1114
sV222
p1115
Vmoving
p1116
sV221
p1117
Visn
p1118
sV220
p1119
Vmisisng
p1120
sV2213
p1121
Vslight
p1122
sV2212
p1123
Vhose
p1124
sV2211
p1125
Vstairway
p1126
sV2210
p1127
Vintersections
p1128
sV2217
p1129
Vabout
p1130
sV2216
p1131
Vpanel
p1132
sV2215
p1133
Voffset
p1134
sV2214
p1135
Valthough
p1136
sV2219
p1137
Vcolumn
p1138
sV2218
p1139
Vgetting
p1140
sV2230
p1141
Vdoesnt
p1142
sV151
p1143
Vover
p1144
sV150
p1145
Vpothole
p1146
sV153
p1147
Vvary
p1148
sV152
p1149
Vpuling
p1150
sV155
p1151
Vdiagonally
p1152
sV154
p1153
Vlampost
p1154
sV157
p1155
Vima
p1156
sV156
p1157
Vbefore
p1158
sV159
p1159
Vsome
p1160
sV158
p1161
Vpicturethere
p1162
sV2236
p1163
Vvan
p1164
sV2199
p1165
Vdiff
p1166
sV1807
p1167
Vfron
p1168
sV1806
p1169
Vfrom
p1170
sV1805
p1171
Vfee
p1172
sV1804
p1173
Vuse
p1174
sV1803
p1175
Vsencond
p1176
sV1802
p1177
Vstanding
p1178
sV1801
p1179
Vdosent
p1180
sV1800
p1181
Vmotor
p1182
sV1809
p1183
Vnext
p1184
sV1808
p1185
Vremains
p1186
sV1524
p1187
Vhuddles
p1188
sV1948
p1189
Vconversation
p1190
sV1544
p1191
Vvaguely
p1192
sV1525
p1193
Vpt
p1194
sV1942
p1195
Vgarls
p1196
sV1943
p1197
Vg
sV1940
p1198
Vafterward
p1199
sV1941
p1200
Vbackwards
p1201
sV1946
p1202
Vskateboard
p1203
sV1526
p1204
Vverse
p1205
sV1944
p1206
Vcould
p1207
sV1945
p1208
Vhes
p1209
sV818
p1210
Vcrossroads
p1211
sV819
p1212
Vr
sV1527
p1213
Vwhom
p1214
sV810
p1215
V11
p1216
sV811
p1217
Vwide
p1218
sV812
p1219
V13
p1220
sV813
p1221
V12
p1222
sV814
p1223
V15
p1224
sV815
p1225
V17
p1226
sV816
p1227
V18
p1228
sV817
p1229
Vtransferred
p1230
sV1545
p1231
Vsleeves
p1232
sV1522
p1233
Vperon
p1234
sV1990
p1235
Vslighlty
p1236
sV1523
p1237
Vchurch
p1238
sV1993
p1239
Vwlking
p1240
sV1490
p1241
Vcurrently
p1242
sV1397
p1243
Vbehind
p1244
sV1492
p1245
Vpickup
p1246
sV1493
p1247
Vvarious
p1248
sV1494
p1249
Vprobably
p1250
sV1495
p1251
Vcrosswalk
p1252
sV1496
p1253
Vnumerous
p1254
sV1396
p1255
Vpeple
p1256
sV1498
p1257
Vavailable
p1258
sV1499
p1259
Vrecently
p1260
sV1395
p1261
Vbowed
p1262
sV1994
p1263
Vunlikely
p1264
sV1700
p1265
Vdragging
p1266
sV1701
p1267
Vpeach
p1268
sV1702
p1269
Vnan
p1270
sV1394
p1271
Vshifted
p1272
sV1704
p1273
Vinvalid
p1274
sV1705
p1275
Vaccross
p1276
sV1706
p1277
Vgrouped
p1278
sV1707
p1279
Vlightpole
p1280
sV1708
p1281
Velectrical
p1282
sV1393
p1283
Vstore
p1284
sV1996
p1285
Vbluie
p1286
sV1392
p1287
Vpassed
p1288
sV1391
p1289
Vstation
p1290
sV1390
p1291
Vpaint
p1292
sV1128
p1293
Vmovedthere
p1294
sV1129
p1295
Vay
p1296
sV1628
p1297
Vgreener
p1298
sV1120
p1299
Vaa
p1300
sV1121
p1301
Vgone
p1302
sV1122
p1303
Vsunroof
p1304
sV1123
p1305
Vmoved
p1306
sV1124
p1307
Vgeneral
p1308
sV1125
p1309
Vas
p1310
sV1126
p1311
Var
p1312
sV1127
p1313
Vat
p1314
sV524
p1315
Vfore
p1316
sV525
p1317
Vhear
p1318
sV526
p1319
Vleftside
p1320
sV527
p1321
Vremoved
p1322
sV520
p1323
Vhead
p1324
sV521
p1325
Vform
p1326
sV522
p1327
Vattempted
p1328
sV523
p1329
Vdifferences
p1330
sV1014
p1331
Vseems
p1332
sV1015
p1333
Vexcept
p1334
sV1016
p1335
Vther
p1336
sV1017
p1337
Vbricks
p1338
sV528
p1339
Vtrue
p1340
sV529
p1341
Vabsent
p1342
sV1012
p1343
Vhalfway
p1344
sV1013
p1345
Vpillar
p1346
sV1234
p1347
Vpick
p1348
sV1235
p1349
Vaction
p1350
sV1236
p1351
Vexited
p1352
sV1237
p1353
Velongated
p1354
sV1230
p1355
Vpeaking
p1356
sV1231
p1357
Vprior
p1358
sV1232
p1359
Vamount
p1360
sV1233
p1361
Varent
p1362
sV1238
p1363
Vsticking
p1364
sV1239
p1365
Vvia
p1366
sV438
p1367
Vhuman
p1368
sV439
p1369
Vyet
p1370
sV436
p1371
Vgrader
p1372
sV437
p1373
Vtransporting
p1374
sV434
p1375
Vjust
p1376
sV435
p1377
Vphoto
p1378
sV432
p1379
Vmddle
p1380
sV433
p1381
Vdeparted
p1382
sV430
p1383
Vtha
p1384
sV431
p1385
Vleft
p1386
sV1967
p1387
Vbalck
p1388
sV1960
p1389
Vreached
p1390
sV1961
p1391
Vumbrellas
p1392
sV238
p1393
Vgirls
p1394
sV239
p1395
Vtow
p1396
sV234
p1397
Vten
p1398
sV235
p1399
Vservice
p1400
sV236
p1401
Vtop
p1402
sV237
p1403
V10m
p1404
sV230
p1405
Vanother
p1406
sV231
p1407
Vwasn
p1408
sV232
p1409
Vwasa
p1410
sV233
p1411
Vhood
p1412
sV2228
p1413
Vloner
p1414
sV2229
p1415
Vguard
p1416
sV2226
p1417
Vpreviously
p1418
sV2227
p1419
Vbreezeway
p1420
sV2224
p1421
Vown
p1422
sV2225
p1423
Vletters
p1424
sV2222
p1425
Vupward
p1426
sV2223
p1427
Vshrank
p1428
sV2220
p1429
Vshipping
p1430
sV2221
p1431
Vbeige
p1432
sV1
Varrives
p1433
sV146
p1434
Vorder
p1435
sV147
p1436
Vwine
p1437
sV144
p1438
Venter
p1439
sV145
p1440
Vfirst
p1441
sV142
p1442
Vbaggage
p1443
sV143
p1444
Vgreen
p1445
sV140
p1446
Vparallel
p1447
sV141
p1448
Vthird
p1449
sV148
p1450
Voffice
p1451
sV149
p1452
Vdeck
p1453
sV2088
p1454
Vtaking
p1455
sV2089
p1456
Vaqua
p1457
sV2082
p1458
Vcourtyard
p1459
sV2083
p1460
Vtwohumans
p1461
sV2080
p1462
Vopening
p1463
sV2081
p1464
Vdrivig
p1465
sV2086
p1466
Vpolice
p1467
sV2087
p1468
Vmage
p1469
sV2084
p1470
Vjob
p1471
sV2085
p1472
Vnortheast
p1473
sV1832
p1474
Vlinger
p1475
sV1833
p1476
Vcrocked
p1477
sV1830
p1478
Vthis
p1479
sV1831
p1480
Vride
p1481
sV1836
p1482
Vcrossed
p1483
sV1837
p1484
Vthin
p1485
sV1834
p1486
Vothe
p1487
sV1835
p1488
Vanywhere
p1489
sV1838
p1490
Visland
p1491
sV1839
p1492
Vmeet
p1493
sV2154
p1494
Vfighting
p1495
sV2155
p1496
Vsets
p1497
sV939
p1498
Vlready
p1499
sV938
p1500
Vphotot
p1501
sV2150
p1502
Vcenter
p1503
sV2151
p1504
Vi
sV2152
p1505
Vandnot
p1506
sV2153
p1507
Vwell
p1508
sV933
p1509
Vdirection
p1510
sV932
p1511
V2mens
p1512
sV931
p1513
Vreflective
p1514
sV930
p1515
Vstripped
p1516
sV937
p1517
Vobserve
p1518
sV936
p1519
Vphotos
p1520
sV935
p1521
Vformed
p1522
sV934
p1523
Vshopping
p1524
sV1955
p1525
Vbonnet
p1526
sV1954
p1527
Vsack
p1528
sV1957
p1529
Vpretty
p1530
sV1956
p1531
Vset
p1532
sV1951
p1533
Vsouth
p1534
sV1950
p1535
Vbarriers
p1536
sV1953
p1537
Vscene
p1538
sV1952
p1539
Vswapped
p1540
sV1959
p1541
Vaisles
p1542
sV1958
p1543
Vlagging
p1544
sV829
p1545
Vcrossover
p1546
sV828
p1547
Valley
p1548
sV825
p1549
Voccupies
p1550
sV824
p1551
Vdiffernce
p1552
sV827
p1553
Vlocations
p1554
sV826
p1555
Vturned
p1556
sV821
p1557
Vcards
p1558
sV820
p1559
Vwere
p1560
sV823
p1561
Vanf
p1562
sV822
p1563
Vand
p1564
sV1536
p1565
Vflight
p1566
sV1483
p1567
Vsee
p1568
sV1482
p1569
Vmanning
p1570
sV1481
p1571
Vthye
p1572
sV1480
p1573
Vthrowing
p1574
sV1487
p1575
Vclose
p1576
sV1486
p1577
Vare
p1578
sV1485
p1579
Vsec
p1580
sV1484
p1581
Vindividual
p1582
sV1489
p1583
Vpictures
p1584
sV1488
p1585
Varm
p1586
sV797
p1587
Vwhite
p1588
sV796
p1589
Vmoisture
p1590
sV795
p1591
Vtell
p1592
sV794
p1593
V2
sV793
p1594
Vanyone
p1595
sV792
p1596
Vplastic
p1597
sV791
p1598
Vnobotiin
p1599
sV790
p1600
Vlanesright
p1601
sV1719
p1602
Vfurthest
p1603
sV1718
p1604
Vstructure
p1605
sV799
p1606
Vframe
p1607
sV798
p1608
Vbushy
p1609
sV1270
p1610
Vpone
p1611
sV1271
p1612
Vbuildng
p1613
sV1272
p1614
Voutfits
p1615
sV1139
p1616
Vsomeones
p1617
sV1138
p1618
V5
sV1133
p1619
Vagain
p1620
sV1132
p1621
Vcream
p1622
sV1131
p1623
Vmoves
p1624
sV1130
p1625
Vlanes
p1626
sV1137
p1627
Vgolfcart
p1628
sV1136
p1629
Vfield
p1630
sV1135
p1631
Vstorage
p1632
sV1134
p1633
Vdrivers
p1634
sV1276
p1635
Vcourt
p1636
sV1277
p1637
Vrather
p1638
sV519
p1639
Vlowest
p1640
sV518
p1641
Voverhang
p1642
sV2149
p1643
Voff
p1644
sV1009
p1645
Vlmage
p1646
sV1008
p1647
Vtouch
p1648
sV1007
p1649
Vdisperse
p1650
sV1006
p1651
Vrelevant
p1652
sV1005
p1653
Vrest
p1654
sV1004
p1655
Vneon
p1656
sV515
p1657
Vstuck
p1658
sV1002
p1659
Vbeing
p1660
sV517
p1661
Vwas
p1662
sV1000
p1663
Vgates
p1664
sV623
p1665
Vchange
p1666
sV622
p1667
Vappears
p1668
sV1225
p1669
Vcolored
p1670
sV620
p1671
Valone
p1672
sV627
p1673
Vnoticeable
p1674
sV626
p1675
Vincoming
p1676
sV625
p1677
Vboy
p1678
sV624
p1679
Vbox
p1680
sV629
p1681
Vexiting
p1682
sV628
p1683
Vbot
p1684
sV1229
p1685
Vpics
p1686
sV1228
p1687
Vstorefront
p1688
sV1535
p1689
Vsleeved
p1690
sV2
Vdissolution
p1691
sV1286
p1692
Vgine
p1693
sV11
p1694
Vcabriolet
p1695
sV10
p1696
Vbuddy
p1697
sV13
p1698
Vbike
p1699
sV12
p1700
Vvisable
p1701
sV15
p1702
Vunder
p1703
sV14
p1704
Vwhatsoever
p1705
sV17
p1706
Vsped
p1707
sV16
p1708
Vrecycle
p1709
sV19
p1710
Vguardrail
p1711
sV18
p1712
Vcruising
p1713
sV1534
p1714
Vvans
p1715
sV201
p1716
Vnewly
p1717
sV200
p1718
Vgot
p1719
sV203
p1720
Vsliding
p1721
sV202
p1722
Vinvidual
p1723
sV205
p1724
Vturning
p1725
sV204
p1726
Vperception
p1727
sV207
p1728
Vmidpoint
p1729
sV206
p1730
Vrail
p1731
sV209
p1732
Vascending
p1733
sV208
p1734
Vlittle
p1735
sV1573
p1736
Vhigher
p1737
sV1572
p1738
V9
sV1571
p1739
Vpeoples
p1740
sV2239
p1741
Vspots
p1742
sV2238
p1743
Vparkerd
p1744
sV1570
p1745
Vcorridor
p1746
sV2231
p1747
Vtiny
p1748
sV1577
p1749
Varrived
p1750
sV2233
p1751
Vroads
p1752
sV2232
p1753
Vtheye
p1754
sV2235
p1755
Vutility
p1756
sV2234
p1757
Vcrooked
p1758
sV2237
p1759
Vadditional
p1760
sV1576
p1761
Vflows
p1762
sV1575
p1763
Vsomewhere
p1764
sV1574
p1765
Vused
p1766
sV2185
p1767
Vlikea
p1768
sV2184
p1769
Vprominent
p1770
sV2095
p1771
Votherwise
p1772
sV2094
p1773
Vseperating
p1774
sV2097
p1775
Vunclear
p1776
sV2096
p1777
Vadjusted
p1778
sV2091
p1779
Vdoorway
p1780
sV2090
p1781
Vetc
p1782
sV2093
p1783
Vpassing
p1784
sV2092
p1785
Vfigures
p1786
sV2099
p1787
Vca
p1788
sV2098
p1789
Vwall
p1790
sV2188
p1791
Vmidground
p1792
sV1829
p1793
Vf
sV1828
p1794
Vphot
p1795
sV1825
p1796
Vbaby
p1797
sV1824
p1798
Vcarrying
p1799
sV1827
p1800
Vwomen
p1801
sV1826
p1802
Vvehcile
p1803
sV1821
p1804
Vesiting
p1805
sV1820
p1806
Vbecomes
p1807
sV1823
p1808
Voccurred
p1809
sV1822
p1810
Vkiosk
p1811
sV928
p1812
Vcoupe
p1813
sV929
p1814
Varte
p1815
sV2145
p1816
Vstudent
p1817
sV2144
p1818
Vpaving
p1819
sV2143
p1820
Vion
p1821
sV2142
p1822
Vwalkking
p1823
sV2141
p1824
Vbald
p1825
sV2140
p1826
Vball
p1827
sV920
p1828
Vpilings
p1829
sV921
p1830
Vtehre
p1831
sV922
p1832
Vpole
p1833
sV923
p1834
Vstretched
p1835
sV924
p1836
Vacrs
p1837
sV925
p1838
Vcycling
p1839
sV926
p1840
Vcares
p1841
sV927
p1842
Vwest
p1843
sV1920
p1844
Vfemale
p1845
sV1921
p1846
Vtents
p1847
sV1922
p1848
Vdoing
p1849
sV1923
p1850
Vslumped
p1851
sV1924
p1852
Vbay
p1853
sV1925
p1854
Vout
p1855
sV1926
p1856
Vappeaered
p1857
sV1927
p1858
Vbunched
p1859
sV1928
p1860
Vres
p1861
sV1929
p1862
Vaslso
p1863
sV832
p1864
Vany
p1865
sV833
p1866
Vsat
p1867
sV830
p1868
Vans
p1869
sV831
p1870
Vslab
p1871
sV836
p1872
Vequipment
p1873
sV837
p1874
Vtake
p1875
sV834
p1876
Visolate
p1877
sV835
p1878
Vaside
p1879
sV838
p1880
Vsure
p1881
sV839
p1882
Valtered
p1883
sV3
Vyellow
p1884
sV1986
p1885
Vstrrt
p1886
sV1987
p1887
Vlover
p1888
sV1532
p1889
Vpm
p1890
sV784
p1891
Vbobcat
p1892
sV785
p1893
Vdrove
p1894
sV786
p1895
Vopen
p1896
sV787
p1897
Vsize
p1898
sV780
p1899
Vone
p1900
sV781
p1901
Vfast
p1902
sV782
p1903
Vdirectly
p1904
sV783
p1905
Vcarry
p1906
sV1726
p1907
Vdepth
p1908
sV1727
p1909
Vopposing
p1910
sV1724
p1911
Vvehicles
p1912
sV1725
p1913
Vwalked
p1914
sV788
p1915
Vcity
p1916
sV789
p1917
Vgiven
p1918
sV1720
p1919
Vlane
p1920
sV1721
p1921
Vland
p1922
sV60
p1923
Vleaves
p1924
sV61
p1925
Vchanged
p1926
sV62
p1927
Vsymmetrical
p1928
sV63
p1929
Vdrivcing
p1930
sV64
p1931
Vtheres
p1932
sV65
p1933
Vchanges
p1934
sV66
p1935
Vmidway
p1936
sV67
p1937
Vgolden
p1938
sV68
p1939
Vvisibly
p1940
sV69
p1941
Vbrought
p1942
sV1371
p1943
Vamerican
p1944
sV1588
p1945
Vaways
p1946
sV1589
p1947
Vpepole
p1948
sV1370
p1949
Vrack
p1950
sV1582
p1951
Vnole
p1952
sV1583
p1953
Vhaul
p1954
sV1580
p1955
Vcongregated
p1956
sV1581
p1957
Volder
p1958
sV1586
p1959
Vedge
p1960
sV1373
p1961
Vleading
p1962
sV1584
p1963
Vobviously
p1964
sV1585
p1965
Vconcrete
p1966
sV1038
p1967
Vfacing
p1968
sV1039
p1969
Vnose
p1970
sV508
p1971
Vdestination
p1972
sV509
p1973
Vtwo
p1974
sV1032
p1975
Vlady
p1976
sV507
p1977
Vraised
p1978
sV1030
p1979
Vusing
p1980
sV505
p1981
Vplus
p1982
sV502
p1983
Vo
sV503
p1984
Vslightlt
p1985
sV500
p1986
Vfurtherest
p1987
sV501
p1988
Vpost
p1989
sV1212
p1990
Vonne
p1991
sV1213
p1992
Vdisbursed
p1993
sV632
p1994
Vshowdow
p1995
sV633
p1996
Vmarked
p1997
sV1216
p1998
Vhandy
p1999
sV1217
p2000
Vmovement
p2001
sV636
p2002
V1st
p2003
sV637
p2004
Vforefront
p2005
sV638
p2006
Vrogjt
p2007
sV639
p2008
Vvivid
p2009
sV1218
p2010
Voutgoing
p2011
sV1219
p2012
Vfull
p2013
sV465
p2014
Vposes
p2015
sV1728
p2016
Vcame
p2017
sV1729
p2018
Vwalker
p2019
sV1106
p2020
Vcycle
p2021
sV1107
p2022
Vwalkway
p2023
sV1104
p2024
Vwite
p2025
sV1105
p2026
Vstaircases
p2027
sV1102
p2028
Vamongst
p2029
sV1103
p2030
Vdepresis
p2031
sV1100
p2032
Viimage
p2033
sV1101
p2034
Venough
p2035
sV1458
p2036
Vremovable
p2037
sV1459
p2038
V8
sV1108
p2039
Ve
sV1109
p2040
Vtrying
p2041
sV1722
p2042
Vtexted
p2043
sV1723
p2044
Vpedestrians
p2045
sV1897
p2046
Vburgandy
p2047
sV1891
p2048
Vmentioned
p2049
sV2136
p2050
Vparty
p2051
sV2137
p2052
Vonleft
p2053
sV216
p2054
Vshelves
p2055
sV217
p2056
Vatm
p2057
sV214
p2058
Vaisle
p2059
sV215
p2060
Vavailablew
p2061
sV212
p2062
Vapposed
p2063
sV213
p2064
Vparrking
p2065
sV210
p2066
Vformation
p2067
sV211
p2068
Vcement
p2069
sV1530
p2070
Vpi
p2071
sV218
p2072
Vups
p2073
sV219
p2074
Vatv
p2075
sV2138
p2076
Vgets
p2077
sV2139
p2078
Vdifficult
p2079
sV4
Vbeyind
p2080
sV1858
p2081
Varrangement
p2082
sV1859
p2083
Vregions
p2084
sV1850
p2085
Vsomething
p2086
sV1851
p2087
Vhit
p2088
sV1852
p2089
Vtan
p2090
sV1853
p2091
Vskirt
p2092
sV1854
p2093
Vsit
p2094
sV1855
p2095
Vdistinguishable
p2096
sV1856
p2097
Vsix
p2098
sV1857
p2099
Vsidewalks
p2100
sV2172
p2101
Vother
p2102
sV2173
p2103
Vmatch
p2104
sV2170
p2105
Vsky
p2106
sV2171
p2107
Vbench
p2108
sV919
p2109
Velot
p2110
sV918
p2111
Vhunched
p2112
sV2174
p2113
Videntical
p2114
sV2175
p2115
Vincreased
p2116
sV915
p2117
Vcomes
p2118
sV914
p2119
Vtraded
p2120
sV917
p2121
Vcolor
p2122
sV916
p2123
Vamong
p2124
sV911
p2125
Vparing
p2126
sV910
p2127
Vflipped
p2128
sV913
p2129
Vwheels
p2130
sV912
p2131
Vs
sV1933
p2132
Vshut
p2133
sV1932
p2134
Vred
p2135
sV1931
p2136
V9cars
p2137
sV1930
p2138
Vcause
p2139
sV1937
p2140
Vcompletely
p2141
sV1936
p2142
Vdiagonal
p2143
sV1935
p2144
Vapproached
p2145
sV1934
p2146
Vumbrella
p2147
sV1939
p2148
Vdumpster
p2149
sV1938
p2150
Vimge
p2151
sV847
p2152
Vboys
p2153
sV846
p2154
Vviewable
p2155
sV845
p2156
Vlawn
p2157
sV844
p2158
Vgreyish
p2159
sV843
p2160
Vcleared
p2161
sV842
p2162
Vpair
p2163
sV841
p2164
Vlanding
p2165
sV840
p2166
Vopposite
p2167
sV849
p2168
Vdrive
p2169
sV848
p2170
Vlater
p2171
sV663
p2172
Varrive
p2173
sV1587
p2174
Ventry
p2175
sV1739
p2176
Vcompact
p2177
sV1738
p2178
Vseemed
p2179
sV1731
p2180
Vonce
p2181
sV1730
p2182
Vstroller
p2183
sV1733
p2184
Vstree
p2185
sV1732
p2186
Vpartial
p2187
sV662
p2188
Vmaking
p2189
sV1734
p2190
Vexisting
p2191
sV1737
p2192
Vgolf
p2193
sV1736
p2194
Vgo
p2195
sV753
p2196
V3rd
p2197
sV752
p2198
Vopened
p2199
sV751
p2200
Vcontainer
p2201
sV750
p2202
Vshown
p2203
sV757
p2204
Vhackey
p2205
sV756
p2206
Vobjext
p2207
sV755
p2208
Vrounding
p2209
sV754
p2210
Vspace
p2211
sV759
p2212
Vlooking
p2213
sV758
p2214
Vfactory
p2215
sV1595
p2216
Vworkers
p2217
sV506
p2218
Vslightly
p2219
sV1597
p2220
Vcausing
p2221
sV1596
p2222
Vpillars
p2223
sV1591
p2224
Vdenser
p2225
sV1590
p2226
Vthings
p2227
sV1593
p2228
Vtables
p2229
sV1033
p2230
Vrear
p2231
sV1599
p2232
Vscrunched
p2233
sV504
p2234
Vmagazine
p2235
sV1025
p2236
Varound
p2237
sV1024
p2238
Vpedestrain
p2239
sV1027
p2240
Vjeans
p2241
sV1031
p2242
Vaccepted
p2243
sV1021
p2244
Vinpicture
p2245
sV1020
p2246
V4
sV1023
p2247
Vheavier
p2248
sV1022
p2249
Vprominently
p2250
sV1036
p2251
Vconversing
p2252
sV1029
p2253
Vtraffic
p2254
sV1028
p2255
Vdark
p2256
sV1037
p2257
Vnissan
p2258
sV1034
p2259
Vfurniture
p2260
sV1035
p2261
Vvertically
p2262
sV605
p2263
Vbulldozer
p2264
sV604
p2265
Vupper
p2266
sV607
p2267
Vsign
p2268
sV606
p2269
Vsigh
p2270
sV601
p2271
Vteal
p2272
sV600
p2273
Vitem
p2274
sV603
p2275
Vround
p2276
sV602
p2277
Vsidewalk
p2278
sV1205
p2279
Vstood
p2280
sV1204
p2281
Vwhat
p2282
sV1207
p2283
Vclock
p2284
sV1206
p2285
Vsub
p2286
sV609
p2287
Vcargo
p2288
sV1200
p2289
Vpass
p2290
sV1203
p2291
Vtrick
p2292
sV1202
p2293
Vcrouched
p2294
sV1211
p2295
Vsuv
p2296
sV634
p2297
Vkayak
p2298
sV635
p2299
Vlamppost
p2300
sV1214
p2301
Voicture
p2302
sV1215
p2303
Vpiture
p2304
sV1111
p2305
Vlonger
p2306
sV1110
p2307
Vwith
p2308
sV1113
p2309
Varranged
p2310
sV1112
p2311
Vpull
p2312
sV1115
p2313
Vpostures
p2314
sV1114
p2315
Vdisbanding
p2316
sV1117
p2317
Vgrass
p2318
sV464
p2319
Vshadow
p2320
sV1119
p2321
Vdarker
p2322
sV1118
p2323
Vrust
p2324
sV467
p2325
Vapart
p2326
sV1449
p2327
Vscattered
p2328
sV1448
p2329
Vgold
p2330
sV466
p2331
Vhatchback
p2332
sV1357
p2333
Vhouses
p2334
sV460
p2335
Vboxes
p2336
sV1355
p2337
Vbully
p2338
sV489
p2339
Vbottom
p2340
sV488
p2341
Vfor
p2342
sV487
p2343
Vick
p2344
sV486
p2345
Vslouched
p2346
sV485
p2347
Vmultiple
p2348
sV1354
p2349
Vbast
p2350
sV483
p2351
Vholdup
p2352
sV482
p2353
Vpeople
p2354
sV481
p2355
Vcrowd
p2356
sV480
p2357
Vrighr
p2358
sV199
p2359
Vre
p2360
sV198
p2361
Vdriving
p2362
sV195
p2363
Venclosure
p2364
sV194
p2365
Vponcho
p2366
sV197
p2367
Vdrivine
p2368
sV196
p2369
Vgon
p2370
sV191
p2371
Vsruck
p2372
sV190
p2373
Vcloths
p2374
sV193
p2375
Vwhit
p2376
sV192
p2377
Vnavy
p2378
sV1454
p2379
Vcurrent
p2380
sV1455
p2381
Vavalabble
p2382
sV1456
p2383
Vstreetlights
p2384
sV1457
p2385
Vscooter
p2386
sV1450
p2387
Vhugging
p2388
sV1451
p2389
Vhillside
p2390
sV1452
p2391
Vrelation
p2392
sV1453
p2393
Vfind
p2394
sV1949
p2395
Vlength
p2396
sV2007
p2397
Vtruck
p2398
sV902
p2399
Vpcture
p2400
sV903
p2401
Vcome
p2402
sV900
p2403
Vparent
p2404
sV901
p2405
Vscreen
p2406
sV906
p2407
Vmans
p2408
sV907
p2409
Vmany
p2410
sV904
p2411
Vcaar
p2412
sV905
p2413
Vtherethen
p2414
sV1843
p2415
Vpoint
p2416
sV1511
p2417
Vlast
p2418
sV908
p2419
Vregion
p2420
sV909
p2421
Vcub
p2422
sV1847
p2423
Vhigh
p2424
sV1846
p2425
Vsanding
p2426
sV1845
p2427
Vroda
p2428
sV1844
p2429
Vbent
p2430
sV2169
p2431
Vheaded
p2432
sV2168
p2433
Vpushchair
p2434
sV2165
p2435
Vtaillight
p2436
sV2164
p2437
Vseats
p2438
sV2167
p2439
Vresidential
p2440
sV2166
p2441
Vtight
p2442
sV2161
p2443
Vdose
p2444
sV2160
p2445
Vproximity
p2446
sV2163
p2447
Vdistant
p2448
sV2162
p2449
Varriving
p2450
sV1947
p2451
Vkeep
p2452
sV1908
p2453
Vauto
p2454
sV1909
p2455
Vcomplete
p2456
sV1906
p2457
Vjunction
p2458
sV1907
p2459
Vgreater
p2460
sV1904
p2461
Vbye
p2462
sV1905
p2463
Vsapling
p2464
sV1902
p2465
Vorange
p2466
sV1903
p2467
Vcovered
p2468
sV1900
p2469
Vlt
p2470
sV1901
p2471
Vstances
p2472
sV854
p2473
Vwidth
p2474
sV855
p2475
Vquantity
p2476
sV856
p2477
Vshop
p2478
sV857
p2479
Vwalking
p2480
sV850
p2481
Vdiffernece
p2482
sV851
p2483
Vclearing
p2484
sV852
p2485
Vgrassland
p2486
sV853
p2487
Vdispersed
p2488
sV858
p2489
Vshot
p2490
sV859
p2491
Vshow
p2492
sV6
Vrailing
p2493
sV740
p2494
Vunloaded
p2495
sV741
p2496
Vsquare
p2497
sV742
p2498
Vsignificantly
p2499
sV743
p2500
Vee
p2501
sV744
p2502
Vchallenger
p2503
sV745
p2504
Vzebra
p2505
sV746
p2506
Ventering
p2507
sV747
p2508
Vsignage
p2509
sV748
p2510
Vgirl
p2511
sV749
p2512
Ver
p2513
sV1798
p2514
Vsightly
p2515
sV1050
p2516
Vascend
p2517
sV1051
p2518
Vimages
p2519
sV1052
p2520
Vdiving
p2521
sV1053
p2522
Vascent
p2523
sV1054
p2524
Vtote
p2525
sV1055
p2526
Vexit
p2527
sV1056
p2528
Vprocess
p2529
sV1057
p2530
Vtransformers
p2531
sV1058
p2532
Vpylons
p2533
sV1059
p2534
Vbusiness
p2535
sV1696
p2536
Vsingle
p2537
sV1697
p2538
Vwarning
p2539
sV1694
p2540
Vflow
p2541
sV1695
p2542
Vdoesn
p2543
sV1692
p2544
Vconstant
p2545
sV1693
p2546
Vadults
p2547
sV1690
p2548
Vclear
p2549
sV1691
p2550
Vweraing
p2551
sV1791
p2552
Vleaving
p2553
sV1698
p2554
Vcurb
p2555
sV1699
p2556
Vbedestrian
p2557
sV1278
p2558
Vstayed
p2559
sV1279
p2560
Vflorescent
p2561
sV618
p2562
Vwater
p2563
sV619
p2564
Vgroups
p2565
sV612
p2566
Vswitch
p2567
sV613
p2568
Vgoes
p2569
sV610
p2570
Vappear
p2571
sV611
p2572
Vpassenders
p2573
sV616
p2574
Vtotalling
p2575
sV617
p2576
Vchicano
p2577
sV614
p2578
Vfalling
p2579
sV615
p2580
Vhummer
p2581
sV1795
p2582
Vchang
p2583
sV1794
p2584
Vexistent
p2585
sV1491
p2586
Vtopmost
p2587
sV1472
p2588
Vseperated
p2589
sV1473
p2590
Vcommon
p2591
sV1470
p2592
Vcrv
p2593
sV1471
p2594
Vsleeve
p2595
sV1476
p2596
Vwheeling
p2597
sV1477
p2598
Vapproaching
p2599
sV1474
p2600
Vdouble
p2601
sV1475
p2602
Vx
sV1478
p2603
Vars
p2604
sV1479
p2605
Vdump
p2606
sV1304
p2607
Vpaper
p2608
sV1305
p2609
Vthrough
p2610
sV1306
p2611
Vsigns
p2612
sV1307
p2613
Vexistence
p2614
sV1300
p2615
Vsoon
p2616
sV1301
p2617
Vshopfront
p2618
sV1302
p2619
Vheld
p2620
sV1303
p2621
Visnt
p2622
sV1497
p2623
Vcrosswork
p2624
sV1308
p2625
Vstaing
p2626
sV1309
p2627
Vits
p2628
sV498
p2629
Vpose
p2630
sV499
p2631
Vdisappeared
p2632
sV494
p2633
Vskateboarder
p2634
sV495
p2635
Vcompletly
p2636
sV496
p2637
Vkhaki
p2638
sV497
p2639
Vdeleted
p2640
sV490
p2641
Vpurple
p2642
sV491
p2643
Vnormal
p2644
sV492
p2645
Vruning
p2646
sV493
p2647
Veverything
p2648
sV24
p2649
Vsly
p2650
sV25
p2651
Vschool
p2652
sV26
p2653
Vmotorcyclist
p2654
sV27
p2655
Vgreenish
p2656
sV20
p2657
Vevery
p2658
sV21
p2659
Vcircled
p2660
sV22
p2661
Vasphalt
p2662
sV23
p2663
Vlefthand
p2664
sV28
p2665
Vheading
p2666
sV29
p2667
Vclothes
p2668
sV1703
p2669
Vbacks
p2670
sV1875
p2671
Vsie
p2672
sV1709
p2673
Vtarp
p2674
sV7
Vconsists
p2675
sV1879
p2676
Vor
p2677
sV2288
p2678
Vadditionally
p2679
sV2289
p2680
Vtailgate
p2681
sV2050
p2682
Vjoins
p2683
sV2280
p2684
Vbook
p2685
sV2281
p2686
Vbranch
p2687
sV2282
p2688
Vu
sV2283
p2689
Vponytail
p2690
sV2284
p2691
Vspreaded
p2692
sV2285
p2693
Vkinds
p2694
sV2286
p2695
Vmovedment
p2696
sV2287
p2697
Vpathways
p2698
sV972
p2699
Visle
p2700
sV2056
p2701
Vstuff
p2702
sV1087
p2703
Vstrip
p2704
sV1086
p2705
Vmoped
p2706
sV1085
p2707
Visdoor
p2708
sV1876
p2709
Vpepople
p2710
sV1877
p2711
Vlight
p2712
sV1874
p2713
Vfootpath
p2714
sV1084
p2715
Vimage
p2716
sV1872
p2717
Vstars
p2718
sV1873
p2719
Vtier
p2720
sV1870
p2721
Vfram
p2722
sV1871
p2723
Vbarricades
p2724
sV1083
p2725
Vladies
p2726
sV1878
p2727
Vlines
p2728
sV1082
p2729
Vbarrels
p2730
sV977
p2731
Vnest
p2732
sV976
p2733
Vclosest
p2734
sV975
p2735
Vpersona
p2736
sV974
p2737
Vsweeper
p2738
sV973
p2739
Vtwosome
p2740
sV1081
p2741
Vamber
p2742
sV971
p2743
Vstepped
p2744
sV970
p2745
Vpad
p2746
sV1080
p2747
Vroad
p2748
sV979
p2749
Vdrives
p2750
sV978
p2751
Vdriver
p2752
sV182
p2753
Vnoticable
p2754
sV183
p2755
Vleaned
p2756
sV180
p2757
Vshadowy
p2758
sV181
p2759
Vl
sV186
p2760
Vwent
p2761
sV187
p2762
Vsliver
p2763
sV184
p2764
Varrow
p2765
sV185
p2766
Veach
p2767
sV2110
p2768
Vwaitingin
p2769
sV2111
p2770
Vam
p2771
sV188
p2772
Vside
p2773
sV189
p2774
Vlifted
p2775
sV2114
p2776
Vmail
p2777
sV2115
p2778
Vsmoking
p2779
sV2116
p2780
Van
p2781
sV1559
p2782
V30
p2783
sV1919
p2784
Vlie
p2785
sV1918
p2786
Vglasses
p2787
sV1464
p2788
Vnellow
p2789
sV1911
p2790
Veople
p2791
sV1910
p2792
Vcutting
p2793
sV1913
p2794
Vfront
p2795
sV1912
p2796
Vhands
p2797
sV1915
p2798
Vstading
p2799
sV1914
p2800
Vday
p2801
sV1917
p2802
Vcrossing
p2803
sV1916
p2804
Vblacktop
p2805
sV869
p2806
Veither
p2807
sV868
p2808
V3
sV2113
p2809
Vtheeft
p2810
sV861
p2811
Vspaces
p2812
sV860
p2813
Vbright
p2814
sV863
p2815
Vfifth
p2816
sV862
p2817
Vcorner
p2818
sV865
p2819
Vslot
p2820
sV864
p2821
Vground
p2822
sV867
p2823
Vstair
p2824
sV866
p2825
Vslow
p2826
sV2024
p2827
Vface
p2828
sV2025
p2829
Vpipe
p2830
sV2026
p2831
Vloger
p2832
sV2027
p2833
Vlowered
p2834
sV2020
p2835
Vdolley
p2836
sV2021
p2837
Vmman
p2838
sV2022
p2839
Veachother
p2840
sV2023
p2841
Vgather
p2842
sV2117
p2843
Vpresent
p2844
sV2028
p2845
Vbiggger
p2846
sV2029
p2847
Vmovie
p2848
sV883
p2849
Vinside
p2850
sV882
p2851
Vwhere
p2852
sV881
p2853
Vtent
p2854
sV880
p2855
Vmedian
p2856
sV887
p2857
Vparking
p2858
sV886
p2859
Vseat
p2860
sV885
p2861
Vhte
p2862
sV884
p2863
Vpicnic
p2864
sV889
p2865
Vbicyclist
p2866
sV888
p2867
Vvertical
p2868
sV775
p2869
Vturn
p2870
sV774
p2871
Vmotion
p2872
sV777
p2873
Vview
p2874
sV776
p2875
Vplace
p2876
sV771
p2877
Vcard
p2878
sV770
p2879
Vroaad
p2880
sV773
p2881
Vbackside
p2882
sV772
p2883
Vcare
p2884
sV779
p2885
Vomitted
p2886
sV778
p2887
Vstreeet
p2888
sV77
p2889
Vwatering
p2890
sV76
p2891
Vsweater
p2892
sV75
p2893
Vwould
p2894
sV74
p2895
Vsarah
p2896
sV73
p2897
Vlandscape
p2898
sV72
p2899
Vtotal
p2900
sV71
p2901
Vjackets
p2902
sV70
p2903
Vvisible
p2904
sV79
p2905
Vparkig
p2906
sV78
p2907
Varms
p2908
sV1043
p2909
Vstationary
p2910
sV1042
p2911
Vinter
p2912
sV1041
p2913
Vdownward
p2914
sV1040
p2915
Valways
p2916
sV1047
p2917
Vseating
p2918
sV1046
p2919
Vtwelve
p2920
sV1045
p2921
Vgrouping
p2922
sV1044
p2923
Vreduced
p2924
sV1049
p2925
Vsidwalk
p2926
sV1048
p2927
Vgreenery
p2928
sV1681
p2929
Vupright
p2930
sV1680
p2931
Vpictuer
p2932
sV1683
p2933
Vraising
p2934
sV1682
p2935
Vline
p2936
sV1685
p2937
Vbumpers
p2938
sV1684
p2939
Vpeopel
p2940
sV1687
p2941
Vup
p2942
sV1686
p2943
Vaccess
p2944
sV1689
p2945
Vsimilar
p2946
sV1688
p2947
Vus
p2948
sV1269
p2949
Vforground
p2950
sV1268
p2951
Vnumbers
p2952
sV669
p2953
Vclothing
p2954
sV668
p2955
Vdropped
p2956
sV667
p2957
Vpaused
p2958
sV1262
p2959
Vremain
p2960
sV665
p2961
Vgrassy
p2962
sV664
p2963
Vnearest
p2964
sV1267
p2965
Vpushed
p2966
sV1266
p2967
Vcompare
p2968
sV1265
p2969
Vmale
p2970
sV1264
p2971
Vcople
p2972
sV1469
p2973
Vhim
p2974
sV1468
p2975
Vduring
p2976
sV1465
p2977
Vtrees
p2978
sV1018
p2979
Vbackround
p2980
sV1467
p2981
Vclosely
p2982
sV1466
p2983
Vpreparing
p2984
sV1461
p2985
Vhip
p2986
sV1460
p2987
Vcircle
p2988
sV1463
p2989
Vtriangle
p2990
sV1019
p2991
Vumber
p2992
sV1317
p2993
Vdolly
p2994
sV1316
p2995
Vabsence
p2996
sV1315
p2997
Vactually
p2998
sV1314
p2999
V29
p3000
sV1313
p3001
V28
p3002
sV1312
p3003
Vinward
p3004
sV1311
p3005
Vstyle
p3006
sV1310
p3007
Vacrxoss
p3008
sV1319
p3009
Vtravelling
p3010
sV1318
p3011
Vdiffered
p3012
sV1010
p3013
Vkneeling
p3014
sV1011
p3015
Vcapris
p3016
sV319
p3017
Vruns
p3018
sV318
p3019
Vdumpsters
p3020
sV313
p3021
Vamberlaws
p3022
sV312
p3023
V10
p3024
sV311
p3025
Vnex
p3026
sV310
p3027
Vdo
p3028
sV317
p3029
Vihone
p3030
sV316
p3031
Vsecon
p3032
sV315
p3033
Vwallis
p3034
sV314
p3035
Vstop
p3036
sV1335
p3037
Vimgage
p3038
sV1334
p3039
Veveryone
p3040
sV1337
p3041
Vweight
p3042
sV1336
p3043
Vbends
p3044
sV1331
p3045
Vfound
p3046
sV1330
p3047
Vbuttom
p3048
sV1333
p3049
Vheavy
p3050
sV1332
p3051
Vtrailer
p3052
sV630
p3053
Vteenage
p3054
sV2293
p3055
Vportion
p3056
sV2292
p3057
Vupwards
p3058
sV2291
p3059
Vfriends
p3060
sV2290
p3061
Velse
p3062
sV631
p3063
Vextra
p3064
sV2294
p3065
Vcliming
p3066
sV1521
p3067
Vwhatever
p3068
sV1861
p3069
Vlamp
p3070
sV1860
p3071
Vlocated
p3072
sV1863
p3073
Vmilddle
p3074
sV1862
p3075
Vanimal
p3076
sV1865
p3077
Vcircular
p3078
sV1864
p3079
Vinstead
p3080
sV1867
p3081
Vbuildings
p3082
sV1866
p3083
Vyellowish
p3084
sV1869
p3085
Vhumanis
p3086
sV1868
p3087
Vexitin
p3088
sV964
p3089
Vcafe
p3090
sV965
p3091
Vpay
p3092
sV966
p3093
Vfender
p3094
sV967
p3095
Vsame
p3096
sV960
p3097
Vfame
p3098
sV961
p3099
Vmovements
p3100
sV962
p3101
Vbags
p3102
sV963
p3103
Vpar
p3104
sV968
p3105
Vgentlemen
p3106
sV969
p3107
Vshifts
p3108
sV2109
p3109
Vangled
p3110
sV2108
p3111
Vumbrelas
p3112
sV2103
p3113
Voccured
p3114
sV2102
p3115
Vpicking
p3116
sV2101
p3117
Vtable
p3118
sV2100
p3119
Vwalk
p3120
sV2107
p3121
Vnnot
p3122
sV2106
p3123
Vaddition
p3124
sV2105
p3125
Vpowered
p3126
sV2104
p3127
Vmotorbike
p3128
sV1560
p3129
Vbacking
p3130
sV1241
p3131
Vsuddenly
p3132
sV878
p3133
Vsideway
p3134
sV1240
p3135
Vfamily
p3136
sV876
p3137
Vnearly
p3138
sV877
p3139
Vlighter
p3140
sV874
p3141
Vtilting
p3142
sV875
p3143
Vspraying
p3144
sV872
p3145
Vblack
p3146
sV1243
p3147
Vviz
p3148
sV870
p3149
Vonly
p3150
sV871
p3151
Vgoing
p3152
sV2037
p3153
Vtire
p3154
sV2036
p3155
Vnearer
p3156
sV2035
p3157
Vparked
p3158
sV1242
p3159
Vput
p3160
sV2033
p3161
Vbiker
p3162
sV2032
p3163
Vgentleman
p3164
sV2031
p3165
Vemerging
p3166
sV2030
p3167
Vson
p3168
sV9
Vtrolley
p3169
sV1245
p3170
Vtakes
p3171
sV2039
p3172
Vbrighter
p3173
sV1244
p3174
Vpulls
p3175
sV890
p3176
Vways
p3177
sV891
p3178
Voppening
p3179
sV892
p3180
Voutsice
p3181
sV893
p3182
Vhandtruck
p3183
sV894
p3184
Voutside
p3185
sV1247
p3186
Vfinally
p3187
sV896
p3188
Vreading
p3189
sV897
p3190
Vacross
p3191
sV898
p3192
Vdifferes
p3193
sV899
p3194
Vnotice
p3195
sV646
p3196
Vpeope
p3197
sV1249
p3198
V6
sV648
p3199
Voof
p3200
sV1537
p3201
Vgay
p3202
sV1964
p3203
Vstaning
p3204
sV1965
p3205
Vracks
p3206
sV1966
p3207
Vtheir
p3208
sV1788
p3209
Vgreat
p3210
sV1789
p3211
Vdividing
p3212
sV768
p3213
Vajar
p3214
sV769
p3215
Vdissonant
p3216
sV762
p3217
Vcars
p3218
sV763
p3219
Vseventh
p3220
sV760
p3221
Vshows
p3222
sV761
p3223
Vearlier
p3224
sV766
p3225
Vaddtional
p3226
sV767
p3227
Vbesides
p3228
sV764
p3229
Vcart
p3230
sV765
p3231
Vquite
p3232
sV1962
p3233
Vrigh
p3234
sV1963
p3235
Vunknown
p3236
sV1078
p3237
Vot
p3238
sV1079
p3239
Vgesturing
p3240
sV1076
p3241
Vslights
p3242
sV1077
p3243
Vthreesome
p3244
sV1074
p3245
Vqueued
p3246
sV1075
p3247
Vstand
p3248
sV1072
p3249
Vof
p3250
sV1073
p3251
Vbollards
p3252
sV1070
p3253
Vpackage
p3254
sV1071
p3255
Vjeep
p3256
sV1678
p3257
Vsde
p3258
sV1561
p3259
Vstations
p3260
sV1674
p3261
Vhimself
p3262
sV1675
p3263
Velsewhere
p3264
sV1676
p3265
Vinches
p3266
sV1677
p3267
Vposter
p3268
sV1670
p3269
Vforward
p3270
sV1671
p3271
Vsections
p3272
sV1672
p3273
Vcraging
p3274
sV1673
p3275
Vconsiderably
p3276
sV1094
p3277
Vthere
p3278
sV1095
p3279
Vstart
p3280
sV1096
p3281
Vlow
p3282
sV1097
p3283
Vlot
p3284
sV1090
p3285
Vlog
p3286
sV1091
p3287
Vher
p3288
sV1092
p3289
Varea
p3290
sV1093
p3291
Varen
p3292
sV674
p3293
Vstnaindg
p3294
sV675
p3295
Vfourth
p3296
sV676
p3297
Vdifferents
p3298
sV677
p3299
Vdivider
p3300
sV1098
p3301
Vthers
p3302
sV1099
p3303
Villuminated
p3304
sV672
p3305
Vsuitcases
p3306
sV673
p3307
Vdumpter
p3308
sV1997
p3309
Vapparently
p3310
sV1533
p3311
Vresting
p3312
sV1418
p3313
Vcleaner
p3314
sV1419
p3315
Vigor
p3316
sV1410
p3317
Vgrey
p3318
sV1411
p3319
Vyouth
p3320
sV1412
p3321
Vstall
p3322
sV1413
p3323
Vstp
p3324
sV1414
p3325
Vtoward
p3326
sV1415
p3327
Vimsge
p3328
sV1416
p3329
Vpedestreians
p3330
sV1417
p3331
Vbooth
p3332
sV1322
p3333
Vsomebody
p3334
sV1323
p3335
Vmales
p3336
sV1320
p3337
Vmight
p3338
sV1321
p3339
Vsomeone
p3340
sV1326
p3341
Vbigger
p3342
sV1327
p3343
Vhuddle
p3344
sV1324
p3345
Vfoot
p3346
sV1325
p3347
Vys
p3348
sV1328
p3349
Vfully
p3350
sV1329
p3351
Vstopped
p3352
sV5
Vfour
p3353
sV1531
p3354
Vempty
p3355
sV1256
p3356
Vflag
p3357
sV1257
p3358
Vnone
p3359
sV1254
p3360
Vsuvs
p3361
sV1255
p3362
Vmotin
p3363
sV1252
p3364
Vflat
p3365
sV1253
p3366
Vdoor
p3367
sV1250
p3368
Vtaken
p3369
sV1251
p3370
Vmore
p3371
sV1528
p3372
Vdropping
p3373
sV1529
p3374
Vbrick
p3375
sV1258
p3376
Vinclude
p3377
sV1259
p3378
Vorganization
p3379
sV308
p3380
Vfolder
p3381
sV309
p3382
Vwearing
p3383
sV300
p3384
Vbusy
p3385
sV301
p3386
Vpanned
p3387
sV302
p3388
Vbuss
p3389
sV303
p3390
Vfolded
p3391
sV304
p3392
Vbush
p3393
sV305
p3394
Vcaris
p3395
sV306
p3396
Vrick
p3397
sV307
p3398
Vfolks
p3399
sV1792
p3400
Vsuggests
p3401
sV2254
p3402
Vgrate
p3403
sV470
p3404
Vcooler
p3405
sV471
p3406
Vperforming
p3407
sV1898
p3408
Vlampposts
p3409
sV1899
p3410
Vpoeple
p3411
sV1894
p3412
Vouter
p3413
sV1895
p3414
Vla
p3415
sV1896
p3416
Vlo
p3417
sV1443
p3418
Vrighrt
p3419
sV1890
p3420
Vmotorcycle
p3421
sV476
p3422
Vsecurity
p3423
sV1892
p3424
Vbunch
p3425
sV1893
p3426
V1
sV959
p3427
Vcanot
p3428
sV958
p3429
Vgood
p3430
sV2134
p3431
Vmember
p3432
sV2135
p3433
Vparts
p3434
sV2132
p3435
Vheadlight
p3436
sV2133
p3437
Vcross
p3438
sV2130
p3439
Vbegining
p3440
sV2131
p3441
Vperhaps
p3442
sV951
p3443
Vspotlight
p3444
sV950
p3445
Vabducted
p3446
sV953
p3447
Vcanoe
p3448
sV952
p3449
Vvest
p3450
sV955
p3451
Vtelephone
p3452
sV954
p3453
Vpurse
p3454
sV957
p3455
Vmiddle
p3456
sV956
p3457
Vcouples
p3458
sV1442
p3459
Vcover
p3460
sV477
p3461
Voncoming
p3462
sV2002
p3463
Vrearranged
p3464
sV2003
p3465
Vmid
p3466
sV2000
p3467
Vshe
p3468
sV2001
p3469
Vangle
p3470
sV2006
p3471
Vwhich
p3472
sV1440
p3473
Vwindows
p3474
sV2004
p3475
Vparks
p3476
sV2005
p3477
Voutward
p3478
sV2008
p3479
Vsayingh
p3480
sV2009
p3481
Vhoodlums
p3482
sV2034
p3483
Vbikes
p3484
sV1790
p3485
Vlarger
p3486
sV1263
p3487
Vnine
p3488
sV666
p3489
Vfigure
p3490
sV2176
p3491
Vstooped
p3492
sV1261
p3493
Vguards
p3494
sV2177
p3495
Vincreases
p3496
sV1799
p3497
Vdecrease
p3498
sV1260
p3499
Vcluster
p3500
sV719
p3501
Vplatform
p3502
sV718
p3503
Vforms
p3504
sV717
p3505
Vvicinity
p3506
sV716
p3507
Vhow
p3508
sV715
p3509
Vgroup
p3510
sV714
p3511
Vblocked
p3512
sV713
p3513
Vstill
p3514
sV712
p3515
Vcongregating
p3516
sV711
p3517
Vcuts
p3518
sV710
p3519
Vterrace
p3520
sV661
p3521
Vfollowing
p3522
sV660
p3523
Vstature
p3524
sV2178
p3525
Vparalell
p3526
sV1069
p3527
Vcentral
p3528
sV1068
p3529
Von
p3530
sV2179
p3531
Vfive
p3532
sV1061
p3533
Vseconds
p3534
sV1060
p3535
Vraincoat
p3536
sV1063
p3537
Vnotable
p3538
sV1062
p3539
Vsixth
p3540
sV1065
p3541
Vstrret
p3542
sV1064
p3543
Vbroken
p3544
sV1067
p3545
Vseconde
p3546
sV1066
p3547
Vexciting
p3548
sV1669
p3549
Vsuit
p3550
sV1668
p3551
Vtright
p3552
sV1667
p3553
Vlong
p3554
sV1666
p3555
Vlone
p3556
sV1665
p3557
Vretrieving
p3558
sV1664
p3559
Vrows
p3560
sV1663
p3561
Vclack
p3562
sV1662
p3563
Vservices
p3564
sV1661
p3565
Vtaillights
p3566
sV1660
p3567
Vwithin
p3568
sV591
p3569
Vredish
p3570
sV590
p3571
Vvaccuum
p3572
sV593
p3573
Vtherrer
p3574
sV592
p3575
Vexact
p3576
sV595
p3577
Vlevel
p3578
sV594
p3579
Vclouds
p3580
sV597
p3581
Vturns
p3582
sV596
p3583
Vdid
p3584
sV599
p3585
Vleave
p3586
sV598
p3587
Vposts
p3588
sV1089
p3589
Vamassed
p3590
sV1088
p3591
Vtilted
p3592
sV1409
p3593
Vlargely
p3594
sV1408
p3595
Vgotten
p3596
sV1403
p3597
Vstirs
p3598
sV1402
p3599
Vstairs
p3600
sV1401
p3601
Vbelieve
p3602
sV1400
p3603
Vpart
p3604
sV1407
p3605
Vpickups
p3606
sV1406
p3607
Vb
sV1405
p3608
Vkind
p3609
sV1404
p3610
Vreflection
p3611
sV1546
p3612
Vfirt
p3613
sV449
p3614
Vadvanced
p3615
sV448
p3616
Vspread
p3617
sV1339
p3618
Vhard
p3619
sV1338
p3620
Vhouse
p3621
sV1547
p3622
Vwheeled
p3623
sV443
p3624
Vsmsller
p3625
sV442
p3626
Vmarroon
p3627
sV441
p3628
Venters
p3629
sV440
p3630
Vprevious
p3631
sV447
p3632
Vapears
p3633
sV446
p3634
Vhad
p3635
sV445
p3636
Vphotographer
p3637
sV444
p3638
Vdining
p3639
sV1520
p3640
Vrecycling
p3641
sV1542
p3642
Vgar
p3643
sV1543
p3644
Vgap
p3645
sV39
p3646
Vblue
p3647
sV38
p3648
V4x4
p3649
sV1540
p3650
Vfarside
p3651
sV33
p3652
Vdirect
p3653
sV32
p3654
Vtired
p3655
sV31
p3656
Vspeck
p3657
sV30
p3658
Vbicycle
p3659
sV37
p3660
Vdissapeared
p3661
sV36
p3662
Vstreet
p3663
sV35
p3664
Vsecond
p3665
sV34
p3666
Vsurrounding
p3667
sV641
p3668
Vthre
p3669
sV640
p3670
Vworking
p3671
sV643
p3672
Vopposed
p3673
sV642
p3674
Vsports
p3675
sV645
p3676
Vthru
p3677
sV644
p3678
Vanumore
p3679
sV647
p3680
Ventrance
p3681
sV1246
p3682
Vcontains
p3683
sV649
p3684
Vapparent
p3685
sV1248
p3686
Vtwp
p3687
sV1539
p3688
Vfire
p3689
sV1538
p3690
Vpassengers
p3691
sV339
p3692
Vunable
p3693
sV338
p3694
Vshirted
p3695
sV335
p3696
Vsubject
p3697
sV334
p3698
Vledge
p3699
sV337
p3700
Vaway
p3701
sV336
p3702
Vlots
p3703
sV331
p3704
Vobserved
p3705
sV330
p3706
Vobserver
p3707
sV333
p3708
Vresult
p3709
sV332
p3710
Vdecided
p3711
sV1026
p3712
Vread
p3713
sV2118
p3714
Vunlike
p3715
sV8
Vassembled
p3716
sV2119
p3717
Vappearance
p3718
sV1462
p3719
Vhis
p3720
sV1991
p3721
Vneer
p3722
sV1889
p3723
Vincluding
p3724
sV1888
p3725
Vmeter
p3726
sV1887
p3727
Vgarl
p3728
sV1886
p3729
Vmove
p3730
sV1885
p3731
Vheater
p3732
sV1884
p3733
Vbins
p3734
sV1883
p3735
Vlined
p3736
sV1882
p3737
Vsidealk
p3738
sV1881
p3739
Vminivan
p3740
sV1880
p3741
Vhonestly
p3742
sV2121
p3743
Valmost
p3744
sV2120
p3745
Vtshirt
p3746
sV2123
p3747
Vcompleted
p3748
sV2122
p3749
Vwalks
p3750
sV2125
p3751
Vvs
p3752
sV2124
p3753
Vsite
p3754
sV948
p3755
Vstraighter
p3756
sV949
p3757
Vcasr
p3758
sV946
p3759
Vpreson
p3760
sV947
p3761
Vhandicapped
p3762
sV944
p3763
Vthese
p3764
sV945
p3765
Vrunnig
p3766
sV942
p3767
Vbeteween
p3768
sV943
p3769
Vdisapeared
p3770
sV940
p3771
Vthose
p3772
sV941
p3773
Vcase
p3774
sV133
p3775
Vreplacing
p3776
sV132
p3777
Vbriefcase
p3778
sV131
p3779
Vlan
p3780
sV130
p3781
Vgate
p3782
sV137
p3783
Vjumping
p3784
sV136
p3785
Vwrong
p3786
sV135
p3787
Vafter
p3788
sV134
p3789
Vladder
p3790
sV139
p3791
Vlaw
p3792
sV138
p3793
Vlay
p3794
sV2019
p3795
Vcellphone
p3796
sV2018
p3797
Vsocializing
p3798
sV2015
p3799
Vhilltop
p3800
sV2014
p3801
Veight
p3802
sV2017
p3803
Vpayment
p3804
sV2016
p3805
Vsedan
p3806
sV2011
p3807
Vwho
p3808
sV2010
p3809
Voject
p3810
sV2013
p3811
Vparkinglot
p3812
sV2012
p3813
Vcamper
p3814
sV1793
p3815
Vbicycles
p3816
sV2112
p3817
Vfinished
p3818
sV708
p3819
Vpointed
p3820
sV709
p3821
Vdisplayed
p3822
sV704
p3823
Vshilver
p3824
sV705
p3825
Vgesture
p3826
sV706
p3827
Vaforementioned
p3828
sV707
p3829
Ventryway
p3830
sV700
p3831
Vso
p3832
sV701
p3833
Vafrican
p3834
sV702
p3835
Vtall
p3836
sV703
p3837
Vpulled
p3838
sV88
p3839
Vfemales
p3840
sV89
p3841
Vbrings
p3842
sV82
p3843
Vtherefore
p3844
sV83
p3845
Vcentre
p3846
sV80
p3847
Vhtere
p3848
sV81
p3849
Vcall
p3850
sV86
p3851
Vuntil
p3852
sV87
p3853
Vseparated
p3854
sV84
p3855
Vparkin
p3856
sV85
p3857
Vtype
p3858
sV1658
p3859
Vgarbage
p3860
sV1659
p3861
Valiens
p3862
sV1652
p3863
Vhumamns
p3864
sV1388
p3865
V5th
p3866
sV1650
p3867
Vplaza
p3868
sV1651
p3869
Vstraightened
p3870
sV1656
p3871
Vblock
p3872
sV1657
p3873
Vseeing
p3874
sV1654
p3875
Vrange
p3876
sV1389
p3877
Vleast
p3878
sV586
p3879
Vmarks
p3880
sV587
p3881
Vveh
p3882
sV584
p3883
Vrightmost
p3884
sV585
p3885
Vstepstool
p3886
sV582
p3887
Vfather
p3888
sV583
p3889
V0
sV580
p3890
Vzone
p3891
sV581
p3892
Vgraph
p3893
sV1984
p3894
Vbehinds
p3895
sV588
p3896
Vbrown
p3897
sV589
p3898
Vautomobiles
p3899
sV1633
p3900
Vleftmost
p3901
sV1982
p3902
Vsteel
p3903
sV1983
p3904
Vphotograph
p3905
sV1436
p3906
Vmost
p3907
sV1437
p3908
Vbafore
p3909
sV1434
p3910
Velectric
p3911
sV1435
p3912
Vreach
p3913
sV1432
p3914
Voffscreen
p3915
sV1433
p3916
Vtowards
p3917
sV1430
p3918
Valso
p3919
sV1431
p3920
Vapproching
p3921
sV1380
p3922
Vtraveled
p3923
sV1981
p3924
Vreverses
p3925
sV1438
p3926
Vnothing
p3927
sV1381
p3928
Vfeet
p3929
sV1349
p3930
Vhill
p3931
sV1541
p3932
Vwheeler
p3933
sV1348
p3934
Vsafety
p3935
sV459
p3936
Vpossibly
p3937
sV450
p3938
Vhas
p3939
sV451
p3940
Vhat
p3941
sV452
p3942
Vhav
p3943
sV1343
p3944
Vfist
p3945
sV1344
p3946
Vbeyond
p3947
sV1345
p3948
Vflower
p3949
sV456
p3950
Vprogressed
p3951
sV457
p3952
Vpossible
p3953
sV656
p3954
Vcap
p3955
sV657
p3956
Vcat
p3957
sV654
p3958
Vcar
p3959
sV655
p3960
Voriginally
p3961
sV652
p3962
Vheadd
p3963
sV653
p3964
Vgatherd
p3965
sV650
p3966
Vcases
p3967
sV651
p3968
Venclosed
p3969
sV1508
p3970
Vboth
p3971
sV1509
p3972
Vc
sV658
p3973
Vlabeled
p3974
sV516
p3975
Vway
p3976
sV1992
p3977
Vgentle
p3978
sV2127
p3979
Vave
p3980
sV2126
p3981
Vclosets
p3982
sV2129
p3983
Vinf
p3984
sV2128
p3985
Vsits
p3986
sV1376
p3987
Vreversing
p3988
sV322
p3989
Vpatch
p3990
sV323
p3991
Vbag
p3992
sV320
p3993
Vbar
p3994
sV321
p3995
Vsligtly
p3996
sV326
p3997
Vfarther
p3998
sV327
p3999
Vbleu
p4000
sV324
p4001
Vtraversed
p4002
sV325
p4003
Vban
p4004
sV328
p4005
Vpople
p4006
sV329
p4007
Videnticle
p4008
sV1340
p4009
Vpositioned
p4010
sV1594
p4011
Vcut
p4012
sV1341
p4013
Vextended
p4014
sV1995
p4015
Vhave
p4016
sV1592
p4017
Valignment
p4018
sV1598
p4019
Vlocation
p4020
sV2248
p4021
Vbus
p4022
sV2249
p4023
Vtriangular
p4024
sV2244
p4025
Vbuy
p4026
sV2245
p4027
Vnorth
p4028
sV2246
p4029
Vchatting
p4030
sV2247
p4031
Vturquiose
p4032
sV2240
p4033
Vpictue
p4034
sV2241
p4035
Vinner
p4036
sV2242
p4037
Vvar
p4038
sV2243
p4039
Vivory
p4040
sV995
p4041
Vvacant
p4042
sV994
p4043
Vsideways
p4044
sV997
p4045
Vwithout
p4046
sV996
p4047
Vroughly
p4048
sV991
p4049
Vdrain
p4050
sV990
p4051
Valltogether
p4052
sV993
p4053
Vtthe
p4054
sV992
p4055
Vtheater
p4056
sV999
p4057
Vtaxi
p4058
sV998
p4059
Vbodies
p4060
sV120
p4061
Vadvancing
p4062
sV121
p4063
Vhod
p4064
sV122
p4065
Vend
p4066
sV123
p4067
Vthing
p4068
sV124
p4069
Vtravel
p4070
sV125
p4071
Vreturning
p4072
sV126
p4073
Vfeature
p4074
sV127
p4075
Vstroe
p4076
sV128
p4077
Vfar
p4078
sV129
p4079
Vadjacent
p4080
sV2068
p4081
Vpacked
p4082
sV2069
p4083
Vcloser
p4084
sV2060
p4085
Vspotted
p4086
sV2061
p4087
Vfarthest
p4088
sV2062
p4089
Vpuddle
p4090
sV2063
p4091
Vterrain
p4092
sV2064
p4093
Vwe
p4094
sV2065
p4095
Vdiffers
p4096
sV2066
p4097
Vdriveway
p4098
sV2067
p4099
Vframs
p4100
sV1748
p4101
Vhuddled
p4102
sV1749
p4103
Vputting
p4104
sV1645
p4105
Vby
p4106
sV1644
p4107
Vobscured
p4108
sV1647
p4109
Vmingled
p4110
sV1646
p4111
Vpostions
p4112
sV1641
p4113
Vstep
p4114
sV1640
p4115
Vpresetnt
p4116
sV1643
p4117
Vfeild
p4118
sV1642
p4119
Vamberlaw
p4120
sV1649
p4121
Vportico
p4122
sV1648
p4123
Vanything
p4124
sV1742
p4125
Vmower
p4126
sV1743
p4127
Vshack
p4128
sV579
p4129
Vsomthing
p4130
sV578
p4131
Vrow
p4132
sV573
p4133
Vskate
p4134
sV572
p4135
Vfocus
p4136
sV571
p4137
Vswitched
p4138
sV570
p4139
Vcoach
p4140
sV577
p4141
Vchair
p4142
sV576
p4143
Vspaced
p4144
sV575
p4145
Vbicylist
p4146
sV574
p4147
Vpeole
p4148
sV1209
p4149
Vsection
p4150
sV1208
p4151
Vsun
p4152
sV1421
p4153
Valongside
p4154
sV1420
p4155
Vwasnt
p4156
sV1423
p4157
Valike
p4158
sV1422
p4159
Vpedestrian
p4160
sV1425
p4161
Vpaths
p4162
sV1424
p4163
Vlid
p4164
sV1427
p4165
Vbuilt
p4166
sV1426
p4167
Vspeaking
p4168
sV1429
p4169
Vlit
p4170
sV1428
p4171
Vstiars
p4172
sV2156
p4173
Vawning
p4174
sV731
p4175
Vnot
p4176
sV730
p4177
Vhalf
p4178
sV733
p4179
Vnor
p4180
sV732
p4181
Vnow
p4182
sV735
p4183
Vdidn
p4184
sV734
p4185
Vwagon
p4186
sV737
p4187
Ventirely
p4188
sV736
p4189
Varrows
p4190
sV739
p4191
Vavailble
p4192
sV738
p4193
Vquarter
p4194
sV1359
p4195
Vmembers
p4196
sV1358
p4197
Vbase
p4198
sV469
p4199
Vvis
p4200
sV468
p4201
Vappearing
p4202
sV1353
p4203
Vforeground
p4204
sV1352
p4205
Vhighway
p4206
sV1351
p4207
Vwalkingby
p4208
sV1350
p4209
V7
sV461
p4210
Vdescending
p4211
sV1356
p4212
Vstory
p4213
sV463
p4214
Vclustered
p4215
sV462
p4216
Vbackground
p4217
sV1273
p4218
Vdress
p4219
sV2158
p4220
Vbending
p4221
sV2159
p4222
Vless
p4223
sV1519
p4224
Vloan
p4225
sV1518
p4226
Vbridge
p4227
sV1515
p4228
Vcollection
p4229
sV1514
p4230
Vles
p4231
sV1517
p4232
Vstoplight
p4233
sV1516
p4234
Vwhole
p4235
sV1274
p4236
Vhwere
p4237
sV1510
p4238
Vlass
p4239
sV1513
p4240
Vbarely
p4241
sV1512
p4242
Vreverse
p4243
sV1735
p4244
Vgroceries
p4245
sV1275
p4246
Vinformation
p4247
sV357
p4248
Vappeared
p4249
sV356
p4250
Vpresumably
p4251
sV355
p4252
Vdisappears
p4253
sV354
p4254
Vstopsign
p4255
sV353
p4256
Vagainst
p4257
sV352
p4258
Vmaneuvers
p4259
sV351
p4260
Vroller
p4261
sV350
p4262
Vpackages
p4263
sV359
p4264
Vgathering
p4265
sV358
p4266
Vstndingin
p4267
sV1447
p4268
Vparticularly
p4269
sV1446
p4270
Vhips
p4271
sV1445
p4272
Vbulletin
p4273
sV289
p4274
Vemiddle
p4275
sV288
p4276
Vdog
p4277
sV1444
p4278
Vbarrel
p4279
sV281
p4280
Vletter
p4281
sV280
p4282
Vpreset
p4283
sV283
p4284
Vparting
p4285
sV282
p4286
Vdeffernart
p4287
sV285
p4288
Vwailking
p4289
sV284
p4290
Vdon
p4291
sV287
p4292
Vmetal
p4293
sV286
p4294
Vhandcart
p4295
sV1441
p4296
Vinto
p4297
sV1116
p4298
Vsuitcase
p4299
sV263
p4300
Vcontents
p4301
sV262
p4302
Vseem
p4303
sV261
p4304
Vseen
p4305
sV260
p4306
Vstalls
p4307
sV267
p4308
Visolated
p4309
sV266
p4310
Vlatter
p4311
sV265
p4312
Vsumbrellas
p4313
sV264
p4314
Vperson
p4315
sV269
p4316
Vmetallic
p4317
sV268
p4318
Vthorough
p4319
sV1562
p4320
Vitself
p4321
sV1563
p4322
Vready
p4323
sV1980
p4324
Vherself
p4325
sV1564
p4326
Vforeword
p4327
sV2192
p4328
Vpage
p4329
sV1565
p4330
Vfunny
p4331
sV2193
p4332
Vexisiting
p4333
sV1566
p4334
Vrighthand
p4335
sV2259
p4336
Vmade
p4337
sV2258
p4338
Vcount
p4339
sV2257
p4340
Vpartially
p4341
sV2256
p4342
Vbug
p4343
sV2255
p4344
Vha
p4345
sV1567
p4346
Vshirt
p4347
sV2253
p4348
Vconstruction
p4349
sV2252
p4350
Vlandscaping
p4351
sV2251
p4352
Vdelivery
p4353
sV2250
p4354
Vbut
p4355
sV988
p4356
Vtotally
p4357
sV989
p4358
Vcanopy
p4359
sV982
p4360
Vpersons
p4361
sV983
p4362
Vrunning
p4363
sV980
p4364
Vcompanion
p4365
sV981
p4366
Vdriven
p4367
sV986
p4368
Vclimbing
p4369
sV987
p4370
Vdiscernable
p4371
sV984
p4372
Vpersonw
p4373
sV985
p4374
Vstairwell
p4375
sV115
p4376
Vbuliding
p4377
sV114
p4378
Vsurveyor
p4379
sV117
p4380
Vdrivinng
p4381
sV116
p4382
Vriing
p4383
sV111
p4384
Vdividers
p4385
sV110
p4386
Vdiminished
p4387
sV113
p4388
Vbothe
p4389
sV112
p4390
Vfloor
p4391
sV119
p4392
V2ndpic
p4393
sV118
p4394
Vtthere
p4395
sV1797
p4396
Vthats
p4397
sV2079
p4398
Vblinker
p4399
sV2078
p4400
Vpants
p4401
sV2073
p4402
Vbaricades
p4403
sV2072
p4404
Vpattern
p4405
sV2071
p4406
Vattempting
p4407
sV2070
p4408
Vcloses
p4409
sV2077
p4410
Vneither
p4411
sV2076
p4412
Vprogress
p4413
sV2075
p4414
Vclosed
p4415
sV2074
p4416
Vproof
p4417
sV1796
p4418
Vshaded
p4419
sV1630
p4420
Vvisiable
p4421
sV1631
p4422
Vslgihtly
p4423
sV1632
p4424
Vper
p4425
sV484
p4426
Vspoted
p4427
sV1634
p4428
Vt
sV1635
p4429
Vbe
p4430
sV1636
p4431
Vreplaced
p4432
sV1637
p4433
Veating
p4434
sV1638
p4435
Vcontinuing
p4436
sV1639
p4437
Vperpendicular
p4438
sV1988
p4439
Vbet
p4440
sV1989
p4441
Vviewer
p4442
sV568
p4443
Vwakling
p4444
sV569
p4445
Vbackward
p4446
sV560
p4447
Vhappening
p4448
sV561
p4449
Vglass
p4450
sV562
p4451
Vpaces
p4452
sV563
p4453
Vryder
p4454
sV564
p4455
Vtogether
p4456
sV565
p4457
Vjacket
p4458
sV566
p4459
Vcarts
p4460
sV567
p4461
Vtime
p4462
sV1188
p4463
Vjoined
p4464
sV1189
p4465
Vlarge
p4466
sV1186
p4467
Vforth
p4468
sV1187
p4469
Vlaying
p4470
sV1184
p4471
Vdifference
p4472
sV1185
p4473
Vsegway
p4474
sV1182
p4475
Vfan
p4476
sV1183
p4477
Vpersosn
p4478
sV1180
p4479
Vcoloured
p4480
sV1181
p4481
Vblockade
p4482
sV726
p4483
Vtucked
p4484
sV727
p4485
Vunderneath
p4486
sV724
p4487
Vmeridian
p4488
sV725
p4489
Vnon
p4490
sV722
p4491
Veroad
p4492
sV723
p4493
Vmain
p4494
sV720
p4495
Vwindow
p4496
sV721
p4497
Vdecreased
p4498
sV1744
p4499
Vgravel
p4500
sV1745
p4501
Vrelocated
p4502
sV1746
p4503
Vrandom
p4504
sV1747
p4505
Vcontinues
p4506
sV1740
p4507
Vcruiser
p4508
sV1741
p4509
Vyoung
p4510
sV728
p4511
Vtouching
p4512
sV729
p4513
Vdiviting
p4514
sV1164
p4515
Vmaxima
p4516
sV1165
p4517
Vchildren
p4518
sV1166
p4519
Vapartment
p4520
sV1167
p4521
Vnears
p4522
sV1160
p4523
Vdiscernible
p4524
sV1161
p4525
Vcaused
p4526
sV1162
p4527
Vwalkng
p4528
sV1163
p4529
Vsplitting
p4530
sV1168
p4531
Vto
p4532
sV1169
p4533
Vtail
p4534
sV472
p4535
Vlapsed
p4536
sV48
p4537
Vasis
p4538
sV49
p4539
Vlert
p4540
sV46
p4541
Vnew
p4542
sV47
p4543
Vnet
p4544
sV44
p4545
Vabove
p4546
sV45
p4547
Vblur
p4548
sV42
p4549
Vlights
p4550
sV43
p4551
Vlightp
p4552
sV40
p4553
Vdiiferent
p4554
sV41
p4555
Vnear
p4556
sV1568
p4557
Vanymore
p4558
sV1569
p4559
Vshorter
p4560
sV1298
p4561
Vpatio
p4562
sV1299
p4563
Vtrough
p4564
sV1292
p4565
Vdeserted
p4566
sV1293
p4567
Vshade
p4568
sV1290
p4569
Vcoat
p4570
sV1291
p4571
Vhauling
p4572
sV1296
p4573
Vdispersing
p4574
sV1297
p4575
Vplaying
p4576
sV1294
p4577
Vmansplaining
p4578
sV1295
p4579
Vinline
p4580
sV1713
p4581
Vdiffferent
p4582
sV474
p4583
Vsteps
p4584
sV1712
p4585
Vsided
p4586
sV475
p4587
Vofficer
p4588
sV1711
p4589
Vpotion
p4590
sV1710
p4591
Vmissig
p4592
sV1717
p4593
Vsides
p4594
sV1716
p4595
Vposters
p4596
sV1715
p4597
Vmeaning
p4598
sV1201
p4599
Vfurther
p4600
sV1714
p4601
Vhelping
p4602
sV1366
p4603
Vbushes
p4604
sV473
p4605
Vpavement
p4606
sV1364
p4607
Vguy
p4608
sV1365
p4609
Vhydrant
p4610
sV1362
p4611
Vheads
p4612
sV1363
p4613
Vbeginning
p4614
sV1360
p4615
Vimagine
p4616
sV1361
p4617
Vbacked
p4618
sV478
p4619
Vright
p4620
sV479
p4621
Vold
p4622
sV1368
p4623
Vcarss
p4624
sV1369
p4625
Vtaht
p4626
ssS'best_val_score'
p4627
F-2.5410699915499508
sS'iter'
p4628
I24000
sS'iterators'
p4629
(dp4630
S'test'
p4631
I0
sS'train'
p4632
I1900
sS'val'
p4633
I6
ssS'epoch'
p4634
I25
sS'split_ix'
p4635
(dp4636
g4631
(lp4637
I9524
aI9525
aI9526
aI9527
aI9528
aI9529
aI9530
aI9531
aI9532
aI9533
aI9534
aI9535
aI9536
aI9537
aI9538
aI9539
aI9540
aI9541
aI9542
aI9543
aI9544
aI9545
aI9546
aI9547
aI9548
aI9549
aI9550
aI9551
aI9552
aI9553
aI9554
aI9555
aI9556
aI9557
aI9558
aI9559
aI9560
aI9561
aI9562
aI9563
aI9564
aI9565
aI9566
aI9567
aI9568
aI9569
aI9570
aI9571
aI9572
aI9573
aI9574
aI9575
aI9576
aI9577
aI9578
aI9579
aI9580
aI9581
aI9582
aI9583
aI9584
aI9585
aI9586
aI9587
aI9588
aI9589
aI9590
aI9591
aI9592
aI9593
aI9594
aI9595
aI9596
aI9597
aI9598
aI9599
aI9600
aI9601
aI9602
aI9603
aI9604
aI9605
aI9606
aI9607
aI9608
aI9609
aI9610
aI9611
aI9612
aI9613
aI9614
aI9615
aI9616
aI9617
aI9618
aI9619
aI9620
aI9621
aI9622
aI9623
aI9624
aI9625
aI9626
aI9627
aI9628
aI9629
aI9630
aI9631
aI9632
aI9633
aI9634
aI9635
aI9636
aI9637
aI9638
aI9639
aI9640
aI9641
aI9642
aI9643
aI9644
aI9645
aI9646
aI9647
aI9648
aI9649
aI9650
aI9651
aI9652
aI9653
aI9654
aI9655
aI9656
aI9657
aI9658
aI9659
aI9660
aI9661
aI9662
aI9663
aI9664
aI9665
aI9666
aI9667
aI9668
aI9669
aI9670
aI9671
aI9672
aI9673
aI9674
aI9675
aI9676
aI9677
aI9678
aI9679
aI9680
aI9681
aI9682
aI9683
aI9684
aI9685
aI9686
aI9687
aI9688
aI9689
aI9690
aI9691
aI9692
aI9693
aI9694
aI9695
aI9696
aI9697
aI9698
aI9699
aI9700
aI9701
aI9702
aI9703
aI9704
aI9705
aI9706
aI9707
aI9708
aI9709
aI9710
aI9711
aI9712
aI9713
aI9714
aI9715
aI9716
aI9717
aI9718
aI9719
aI9720
aI9721
aI9722
aI9723
aI9724
aI9725
aI9726
aI9727
aI9728
aI9729
aI9730
aI9731
aI9732
aI9733
aI9734
aI9735
aI9736
aI9737
aI9738
aI9739
aI9740
aI9741
aI9742
aI9743
aI9744
aI9745
aI9746
aI9747
aI9748
aI9749
aI9750
aI9751
aI9752
aI9753
aI9754
aI9755
aI9756
aI9757
aI9758
aI9759
aI9760
aI9761
aI9762
aI9763
aI9764
aI9765
aI9766
aI9767
aI9768
aI9769
aI9770
aI9771
aI9772
aI9773
aI9774
aI9775
aI9776
aI9777
aI9778
aI9779
aI9780
aI9781
aI9782
aI9783
aI9784
aI9785
aI9786
aI9787
aI9788
aI9789
aI9790
aI9791
aI9792
aI9793
aI9794
aI9795
aI9796
aI9797
aI9798
aI9799
aI9800
aI9801
aI9802
aI9803
aI9804
aI9805
aI9806
aI9807
aI9808
aI9809
aI9810
aI9811
aI9812
aI9813
aI9814
aI9815
aI9816
aI9817
aI9818
aI9819
aI9820
aI9821
aI9822
aI9823
aI9824
aI9825
aI9826
aI9827
aI9828
aI9829
aI9830
aI9831
aI9832
aI9833
aI9834
aI9835
aI9836
aI9837
aI9838
aI9839
aI9840
aI9841
aI9842
aI9843
aI9844
aI9845
aI9846
aI9847
aI9848
aI9849
aI9850
aI9851
aI9852
aI9853
aI9854
aI9855
aI9856
aI9857
aI9858
aI9859
aI9860
aI9861
aI9862
aI9863
aI9864
aI9865
aI9866
aI9867
aI9868
aI9869
aI9870
aI9871
aI9872
aI9873
aI9874
aI9875
aI9876
aI9877
aI9878
aI9879
aI9880
aI9881
aI9882
aI9883
aI9884
aI9885
aI9886
aI9887
aI9888
aI9889
aI9890
aI9891
aI9892
aI9893
aI9894
aI9895
aI9896
aI9897
aI9898
aI9899
aI9900
aI9901
aI9902
aI9903
aI9904
aI9905
aI9906
aI9907
aI9908
aI9909
aI9910
aI9911
aI9912
aI9913
aI9914
aI9915
aI9916
aI9917
aI9918
aI9919
aI9920
aI9921
aI9922
aI9923
aI9924
aI9925
aI9926
aI9927
aI9928
aI9929
aI9930
aI9931
aI9932
aI9933
aI9934
aI9935
aI9936
aI9937
aI9938
aI9939
aI9940
aI9941
aI9942
aI9943
aI9944
aI9945
aI9946
aI9947
aI9948
aI9949
aI9950
aI9951
aI9952
aI9953
aI9954
aI9955
aI9956
aI9957
aI9958
aI9959
aI9960
aI9961
aI9962
aI9963
aI9964
aI9965
aI9966
aI9967
aI9968
aI9969
aI9970
aI9971
aI9972
aI9973
aI9974
aI9975
aI9976
aI9977
aI9978
aI9979
aI9980
aI9981
aI9982
aI9983
aI9984
aI9985
aI9986
aI9987
aI9988
aI9989
aI9990
aI9991
aI9992
aI9993
aI9994
aI9995
aI9996
aI9997
aI9998
aI9999
aI10000
aI10001
aI10002
aI10003
aI10004
aI10005
aI10006
aI10007
aI10008
aI10009
aI10010
aI10011
aI10012
aI10013
aI10014
aI10015
aI10016
aI10017
aI10018
aI10019
aI10020
aI10021
aI10022
aI10023
aI10024
aI10025
aI10026
aI10027
aI10028
aI10029
aI10030
aI10031
aI10032
aI10033
aI10034
aI10035
aI10036
aI10037
aI10038
aI10039
aI10040
aI10041
aI10042
aI10043
aI10044
aI10045
aI10046
aI10047
aI10048
aI10049
aI10050
aI10051
aI10052
aI10053
aI10054
aI10055
aI10056
aI10057
aI10058
aI10059
aI10060
aI10061
aI10062
aI10063
aI10064
aI10065
aI10066
aI10067
aI10068
aI10069
aI10070
aI10071
aI10072
aI10073
aI10074
aI10075
aI10076
aI10077
aI10078
aI10079
aI10080
aI10081
aI10082
aI10083
aI10084
aI10085
aI10086
aI10087
aI10088
aI10089
aI10090
aI10091
aI10092
aI10093
aI10094
aI10095
aI10096
aI10097
aI10098
aI10099
aI10100
aI10101
aI10102
aI10103
aI10104
aI10105
aI10106
aI10107
aI10108
aI10109
aI10110
aI10111
aI10112
aI10113
aI10114
aI10115
aI10116
aI10117
aI10118
aI10119
aI10120
aI10121
aI10122
aI10123
aI10124
aI10125
aI10126
aI10127
aI10128
aI10129
aI10130
aI10131
aI10132
aI10133
aI10134
aI10135
aI10136
aI10137
aI10138
aI10139
aI10140
aI10141
aI10142
aI10143
aI10144
aI10145
aI10146
aI10147
aI10148
aI10149
aI10150
aI10151
aI10152
aI10153
aI10154
aI10155
aI10156
aI10157
aI10158
aI10159
aI10160
aI10161
aI10162
aI10163
aI10164
aI10165
aI10166
aI10167
aI10168
aI10169
aI10170
aI10171
aI10172
aI10173
aI10174
aI10175
aI10176
aI10177
aI10178
aI10179
aI10180
aI10181
aI10182
aI10183
aI10184
aI10185
aI10186
aI10187
aI10188
aI10189
aI10190
aI10191
aI10192
aI10193
aI10194
aI10195
aI10196
aI10197
aI10198
aI10199
aI10200
aI10201
aI10202
aI10203
aI10204
aI10205
aI10206
aI10207
aI10208
aI10209
aI10210
aI10211
aI10212
aI10213
aI10214
aI10215
aI10216
aI10217
aI10218
aI10219
aI10220
aI10221
aI10222
aI10223
aI10224
aI10225
aI10226
aI10227
aI10228
aI10229
aI10230
aI10231
aI10232
aI10233
aI10234
aI10235
aI10236
aI10237
aI10238
aI10239
aI10240
aI10241
aI10242
aI10243
aI10244
aI10245
aI10246
aI10247
aI10248
aI10249
aI10250
aI10251
aI10252
aI10253
aI10254
aI10255
aI10256
aI10257
aI10258
aI10259
aI10260
aI10261
aI10262
aI10263
aI10264
aI10265
aI10266
aI10267
aI10268
aI10269
aI10270
aI10271
aI10272
aI10273
aI10274
aI10275
aI10276
aI10277
aI10278
aI10279
aI10280
aI10281
aI10282
aI10283
aI10284
aI10285
aI10286
aI10287
aI10288
aI10289
aI10290
aI10291
aI10292
aI10293
aI10294
aI10295
aI10296
aI10297
aI10298
aI10299
aI10300
aI10301
aI10302
aI10303
aI10304
aI10305
aI10306
aI10307
aI10308
aI10309
aI10310
aI10311
aI10312
aI10313
aI10314
aI10315
aI10316
aI10317
aI10318
aI10319
aI10320
aI10321
aI10322
aI10323
aI10324
aI10325
aI10326
aI10327
aI10328
aI10329
aI10330
aI10331
aI10332
aI10333
aI10334
aI10335
aI10336
aI10337
aI10338
aI10339
aI10340
aI10341
aI10342
aI10343
aI10344
aI10345
aI10346
aI10347
aI10348
aI10349
aI10350
aI10351
aI10352
aI10353
aI10354
aI10355
aI10356
aI10357
aI10358
aI10359
aI10360
aI10361
aI10362
aI10363
aI10364
aI10365
aI10366
aI10367
aI10368
aI10369
aI10370
aI10371
aI10372
aI10373
aI10374
aI10375
aI10376
aI10377
aI10378
aI10379
aI10380
aI10381
aI10382
aI10383
aI10384
aI10385
aI10386
aI10387
aI10388
aI10389
aI10390
aI10391
aI10392
aI10393
aI10394
aI10395
aI10396
aI10397
aI10398
aI10399
aI10400
aI10401
aI10402
aI10403
aI10404
aI10405
aI10406
aI10407
aI10408
aI10409
aI10410
aI10411
aI10412
aI10413
aI10414
aI10415
aI10416
aI10417
aI10418
aI10419
aI10420
aI10421
aI10422
aI10423
aI10424
aI10425
aI10426
aI10427
aI10428
aI10429
aI10430
aI10431
aI10432
aI10433
aI10434
aI10435
aI10436
aI10437
aI10438
aI10439
aI10440
aI10441
aI10442
aI10443
aI10444
aI10445
aI10446
aI10447
aI10448
aI10449
aI10450
aI10451
aI10452
aI10453
aI10454
aI10455
aI10456
aI10457
aI10458
aI10459
aI10460
aI10461
aI10462
aI10463
aI10464
aI10465
aI10466
aI10467
aI10468
aI10469
aI10470
aI10471
aI10472
aI10473
aI10474
aI10475
aI10476
aI10477
aI10478
aI10479
aI10480
aI10481
aI10482
aI10483
aI10484
aI10485
aI10486
aI10487
aI10488
aI10489
aI10490
aI10491
aI10492
aI10493
aI10494
aI10495
aI10496
aI10497
aI10498
aI10499
aI10500
aI10501
aI10502
aI10503
aI10504
aI10505
aI10506
aI10507
aI10508
aI10509
aI10510
aI10511
aI10512
aI10513
aI10514
aI10515
aI10516
aI10517
aI10518
aI10519
aI10520
aI10521
aI10522
aI10523
aI10524
aI10525
aI10526
aI10527
aI10528
aI10529
aI10530
aI10531
aI10532
aI10533
aI10534
aI10535
aI10536
aI10537
aI10538
aI10539
aI10540
aI10541
aI10542
aI10543
aI10544
aI10545
aI10546
aI10547
aI10548
aI10549
aI10550
aI10551
aI10552
aI10553
aI10554
aI10555
aI10556
aI10557
aI10558
aI10559
aI10560
aI10561
aI10562
aI10563
aI10564
aI10565
aI10566
aI10567
aI10568
aI10569
aI10570
aI10571
aI10572
aI10573
aI10574
aI10575
aI10576
aI10577
aI10578
aI10579
aI10580
aI10581
aI10582
aI10583
aI10584
aI10585
aI10586
aI10587
aI10588
aI10589
aI10590
aI10591
aI10592
aI10593
aI10594
aI10595
aI10596
aI10597
aI10598
aI10599
aI10600
aI10601
aI10602
aI10603
aI10604
aI10605
aI10606
aI10607
aI10608
aI10609
aI10610
aI10611
aI10612
aI10613
aI10614
aI10615
aI10616
aI10617
aI10618
aI10619
aI10620
aI10621
aI10622
aI10623
aI10624
aI10625
aI10626
aI10627
aI10628
aI10629
aI10630
aI10631
aI10632
aI10633
aI10634
aI10635
aI10636
aI10637
aI10638
aI10639
aI10640
aI10641
aI10642
aI10643
aI10644
aI10645
aI10646
aI10647
aI10648
aI10649
aI10650
aI10651
aI10652
aI10653
aI10654
aI10655
aI10656
aI10657
aI10658
aI10659
aI10660
aI10661
aI10662
aI10663
aI10664
aI10665
aI10666
aI10667
aI10668
aI10669
aI10670
aI10671
aI10672
aI10673
aI10674
aI10675
aI10676
aI10677
aI10678
aI10679
aI10680
aI10681
aI10682
aI10683
aI10684
aI10685
aI10686
aI10687
aI10688
aI10689
aI10690
aI10691
aI10692
aI10693
aI10694
aI10695
aI10696
aI10697
aI10698
aI10699
aI10700
aI10701
aI10702
aI10703
aI10704
aI10705
aI10706
aI10707
aI10708
aI10709
aI10710
aI10711
aI10712
aI10713
aI10714
aI10715
aI10716
aI10717
aI10718
aI10719
aI10720
aI10721
aI10722
aI10723
aI10724
aI10725
aI10726
aI10727
aI10728
aI10729
aI10730
aI10731
aI10732
aI10733
aI10734
aI10735
aI10736
aI10737
aI10738
aI10739
aI10740
aI10741
aI10742
aI10743
aI10744
aI10745
aI10746
aI10747
aI10748
aI10749
aI10750
aI10751
aI10752
aI10753
aI10754
aI10755
aI10756
aI10757
aI10758
aI10759
aI10760
aI10761
aI10762
aI10763
aI10764
aI10765
aI10766
aI10767
aI10768
aI10769
aI10770
aI10771
aI10772
aI10773
aI10774
aI10775
aI10776
aI10777
aI10778
aI10779
aI10780
aI10781
aI10782
aI10783
aI10784
aI10785
aI10786
aI10787
aI10788
aI10789
aI10790
aI10791
aI10792
aI10793
aI10794
aI10795
aI10796
aI10797
aI10798
aI10799
aI10800
aI10801
aI10802
aI10803
aI10804
aI10805
aI10806
aI10807
aI10808
aI10809
aI10810
aI10811
aI10812
aI10813
aI10814
aI10815
aI10816
aI10817
aI10818
aI10819
aI10820
aI10821
aI10822
aI10823
aI10824
aI10825
aI10826
aI10827
aI10828
aI10829
aI10830
aI10831
aI10832
aI10833
aI10834
aI10835
aI10836
aI10837
aI10838
aI10839
aI10840
aI10841
aI10842
aI10843
aI10844
aI10845
aI10846
aI10847
aI10848
aI10849
aI10850
aI10851
aI10852
aI10853
aI10854
aI10855
aI10856
aI10857
aI10858
aI10859
aI10860
aI10861
aI10862
aI10863
aI10864
aI10865
aI10866
aI10867
aI10868
aI10869
aI10870
aI10871
aI10872
aI10873
aI10874
aI10875
aI10876
aI10877
aI10878
aI10879
aI10880
aI10881
aI10882
aI10883
aI10884
aI10885
aI10886
aI10887
aI10888
aI10889
aI10890
aI10891
aI10892
aI10893
aI10894
aI10895
aI10896
aI10897
aI10898
aI10899
aI10900
aI10901
aI10902
aI10903
aI10904
aI10905
aI10906
aI10907
aI10908
aI10909
aI10910
aI10911
aI10912
aI10913
aI10914
aI10915
aI10916
aI10917
aI10918
aI10919
aI10920
aI10921
aI10922
aI10923
aI10924
aI10925
aI10926
aI10927
asg4632
(lp4638
I1750
aI5628
aI837
aI8913
aI5642
aI8257
aI3087
aI1985
aI7724
aI7203
aI9242
aI3105
aI1207
aI2025
aI5689
aI3352
aI4319
aI4488
aI7042
aI989
aI3443
aI878
aI3375
aI2573
aI7989
aI5400
aI3513
aI5795
aI5416
aI9370
aI8074
aI2592
aI8999
aI7958
aI6516
aI8157
aI6927
aI2451
aI7124
aI5025
aI6
aI5129
aI2502
aI6952
aI7771
aI2202
aI2890
aI1049
aI656
aI7644
aI3222
aI1970
aI4496
aI9495
aI1065
aI6154
aI7514
aI5565
aI9499
aI8622
aI3520
aI4247
aI9192
aI1229
aI6580
aI4214
aI3223
aI124
aI5877
aI7926
aI6037
aI4080
aI1799
aI2874
aI3925
aI3849
aI603
aI2364
aI9234
aI7810
aI1574
aI13
aI9287
aI532
aI5536
aI3233
aI4674
aI5763
aI3780
aI700
aI1601
aI8124
aI9404
aI9310
aI5580
aI3404
aI4788
aI8452
aI4833
aI6564
aI4986
aI8826
aI7342
aI6700
aI7383
aI4457
aI1403
aI7827
aI3781
aI3260
aI4632
aI5592
aI7086
aI1617
aI2119
aI7457
aI462
aI4494
aI8686
aI1001
aI282
aI1934
aI2729
aI7535
aI4144
aI7346
aI3214
aI696
aI4254
aI5660
aI4363
aI5650
aI7292
aI3262
aI2765
aI4643
aI919
aI6874
aI6398
aI4370
aI9140
aI7971
aI6978
aI3168
aI9487
aI3914
aI4230
aI5047
aI5262
aI5498
aI2264
aI4850
aI1968
aI3502
aI152
aI7078
aI2092
aI4372
aI1036
aI3531
aI813
aI3539
aI8573
aI8130
aI9446
aI6490
aI3424
aI3154
aI4495
aI4464
aI7982
aI947
aI3205
aI7113
aI4939
aI8661
aI4666
aI175
aI2684
aI7790
aI6439
aI1783
aI7648
aI4115
aI8875
aI1688
aI3907
aI4011
aI7875
aI8260
aI6935
aI2094
aI1202
aI2040
aI2280
aI2015
aI4241
aI9386
aI1956
aI5880
aI8767
aI2578
aI7107
aI2970
aI9490
aI7126
aI6319
aI7017
aI8750
aI8201
aI7058
aI9263
aI5152
aI4685
aI614
aI7027
aI913
aI5984
aI4473
aI7106
aI353
aI4480
aI872
aI327
aI15
aI5093
aI6101
aI9459
aI8908
aI8344
aI2275
aI7595
aI8605
aI3267
aI2480
aI1119
aI248
aI7038
aI6266
aI8320
aI3082
aI8103
aI6871
aI1451
aI6143
aI7722
aI4329
aI7562
aI1143
aI307
aI1363
aI7883
aI7428
aI2937
aI5646
aI3085
aI5548
aI2569
aI4380
aI4301
aI3582
aI6199
aI8291
aI3036
aI4569
aI8256
aI2435
aI6487
aI3461
aI5334
aI3221
aI4590
aI5044
aI6574
aI7220
aI415
aI8597
aI2055
aI8451
aI9038
aI1175
aI6347
aI735
aI2467
aI3754
aI996
aI8667
aI4866
aI2726
aI6085
aI2515
aI7849
aI6119
aI5350
aI935
aI4624
aI5615
aI2847
aI8535
aI1748
aI7352
aI5583
aI5910
aI8742
aI5614
aI3182
aI3947
aI8940
aI7071
aI1550
aI5714
aI741
aI6906
aI5935
aI5504
aI666
aI7509
aI3697
aI3108
aI4323
aI210
aI2818
aI4342
aI7960
aI209
aI6133
aI463
aI8163
aI8956
aI4937
aI5151
aI6535
aI3303
aI9123
aI2810
aI5665
aI5788
aI7661
aI6088
aI9004
aI7316
aI2456
aI5528
aI2241
aI4967
aI193
aI4010
aI3197
aI1662
aI9195
aI704
aI4734
aI6175
aI8501
aI8582
aI2142
aI7353
aI8986
aI6506
aI8982
aI5263
aI2812
aI3170
aI7928
aI6567
aI8427
aI8368
aI1479
aI8144
aI5535
aI7998
aI2108
aI2661
aI4487
aI659
aI1641
aI2803
aI1228
aI2305
aI6933
aI9477
aI8796
aI4055
aI7737
aI3446
aI1658
aI7736
aI5069
aI1300
aI4568
aI7978
aI1243
aI1322
aI1089
aI4049
aI6125
aI6480
aI5028
aI2358
aI208
aI2487
aI8502
aI1777
aI4224
aI6799
aI9406
aI504
aI6124
aI6157
aI3555
aI3073
aI3922
aI4257
aI8534
aI5271
aI9021
aI7539
aI4664
aI539
aI6381
aI9015
aI2321
aI4526
aI9183
aI29
aI828
aI8164
aI4367
aI4732
aI8019
aI6529
aI4766
aI5256
aI863
aI5186
aI557
aI3681
aI9522
aI3453
aI1833
aI2045
aI3676
aI1314
aI9316
aI2359
aI7499
aI3798
aI9368
aI3767
aI9395
aI6557
aI6615
aI2246
aI3633
aI9427
aI7677
aI1897
aI2720
aI7164
aI8610
aI385
aI4061
aI729
aI2670
aI341
aI7391
aI1917
aI5596
aI3548
aI5801
aI8586
aI6603
aI4154
aI2904
aI170
aI5067
aI2527
aI2954
aI9095
aI5588
aI7672
aI7542
aI7577
aI1348
aI263
aI8561
aI1177
aI4141
aI6594
aI5777
aI398
aI7729
aI573
aI5198
aI1562
aI5351
aI2444
aI2341
aI7000
aI8023
aI554
aI4425
aI2621
aI6372
aI5864
aI100
aI4435
aI6229
aI8091
aI6855
aI2288
aI5253
aI9442
aI8108
aI1251
aI2642
aI3673
aI8480
aI5724
aI1943
aI695
aI9383
aI5989
aI3340
aI5564
aI6383
aI7909
aI4121
aI9321
aI2699
aI5753
aI1046
aI7413
aI5980
aI7119
aI4553
aI6414
aI7627
aI2723
aI5475
aI2982
aI2941
aI1044
aI3098
aI7825
aI3431
aI1623
aI3299
aI8138
aI7843
aI3883
aI7972
aI639
aI5380
aI2889
aI547
aI4994
aI831
aI5026
aI184
aI6903
aI1246
aI485
aI1585
aI1432
aI4150
aI1435
aI7985
aI8961
aI8757
aI6862
aI5387
aI6893
aI5992
aI2116
aI4050
aI9009
aI8955
aI8460
aI5030
aI601
aI536
aI3261
aI4184
aI6361
aI3630
aI2498
aI57
aI4403
aI2917
aI1840
aI1615
aI898
aI5048
aI5496
aI7589
aI816
aI3384
aI613
aI569
aI5164
aI5352
aI2835
aI8978
aI3247
aI1992
aI1540
aI3281
aI1092
aI1225
aI2476
aI8167
aI8604
aI2967
aI3756
aI7596
aI4433
aI9396
aI6460
aI4927
aI7870
aI2286
aI5466
aI3195
aI8348
aI333
aI8887
aI5883
aI4912
aI8515
aI6890
aI2554
aI266
aI3462
aI7779
aI8261
aI7049
aI8326
aI4203
aI2383
aI1135
aI1779
aI349
aI5088
aI3666
aI7921
aI894
aI2172
aI4801
aI6763
aI366
aI4274
aI5641
aI6510
aI8238
aI4793
aI9000
aI2706
aI6015
aI9059
aI7936
aI2905
aI2541
aI1732
aI2806
aI7306
aI847
aI5315
aI7638
aI7139
aI1419
aI6528
aI9158
aI8927
aI4959
aI6869
aI3132
aI2114
aI7436
aI3249
aI322
aI332
aI6888
aI3711
aI2848
aI5670
aI5960
aI3977
aI5230
aI2099
aI8629
aI6708
aI2492
aI7510
aI7642
aI3941
aI4113
aI2166
aI6553
aI8004
aI5663
aI9435
aI3717
aI8040
aI1459
aI168
aI9170
aI2899
aI5534
aI2829
aI5735
aI5013
aI5486
aI2957
aI5965
aI5118
aI769
aI1807
aI892
aI1620
aI8352
aI5947
aI9397
aI6907
aI9266
aI7511
aI2832
aI9460
aI8839
aI305
aI9269
aI3219
aI9256
aI5802
aI133
aI3695
aI2093
aI9029
aI7055
aI6568
aI5917
aI4207
aI3792
aI3554
aI1301
aI7103
aI2186
aI8811
aI1592
aI5367
aI189
aI1413
aI4743
aI6912
aI5836
aI3572
aI3786
aI7090
aI5143
aI8161
aI2880
aI7348
aI7663
aI3294
aI701
aI8265
aI2089
aI3217
aI3095
aI5300
aI5472
aI2282
aI1762
aI6434
aI4117
aI4990
aI5493
aI456
aI3506
aI6699
aI7280
aI8323
aI7594
aI6377
aI2710
aI9167
aI3318
aI7847
aI488
aI1634
aI7906
aI2417
aI5651
aI6710
aI261
aI2194
aI1431
aI9498
aI8932
aI3566
aI7805
aI6078
aI240
aI5726
aI8426
aI4763
aI5435
aI1148
aI9239
aI3505
aI4881
aI8054
aI7569
aI3933
aI3918
aI7172
aI7558
aI4864
aI6565
aI6484
aI5820
aI8489
aI7171
aI7565
aI5746
aI8820
aI1667
aI1053
aI6260
aI4268
aI5005
aI9181
aI7555
aI6162
aI5082
aI3803
aI5173
aI4129
aI5234
aI5885
aI4649
aI5962
aI3104
aI1342
aI9444
aI5342
aI1346
aI68
aI7923
aI1223
aI7422
aI3992
aI9070
aI6043
aI5457
aI5623
aI1433
aI3037
aI1079
aI5285
aI3835
aI8011
aI766
aI6205
aI5197
aI9225
aI6167
aI4935
aI7267
aI9126
aI2206
aI7476
aI7237
aI2512
aI1269
aI8886
aI4186
aI7835
aI2438
aI2950
aI1099
aI6201
aI4441
aI2308
aI2399
aI9314
aI8417
aI4111
aI6019
aI9457
aI8823
aI9517
aI4838
aI2845
aI511
aI520
aI4942
aI264
aI4847
aI6887
aI946
aI2499
aI7008
aI2944
aI6030
aI2158
aI7297
aI3935
aI5942
aI7087
aI8448
aI4900
aI4806
aI6432
aI4340
aI3244
aI3913
aI4449
aI5268
aI3893
aI6349
aI7568
aI4767
aI7403
aI6422
aI3954
aI4016
aI738
aI3039
aI4134
aI4559
aI9117
aI2285
aI1006
aI1026
aI3983
aI9366
aI3161
aI7964
aI8776
aI7500
aI8513
aI9494
aI9372
aI8853
aI6204
aI2846
aI2525
aI8160
aI439
aI1532
aI2762
aI6371
aI8964
aI3743
aI4199
aI5052
aI6216
aI7969
aI5684
aI2401
aI1176
aI2910
aI8851
aI2787
aI6683
aI1873
aI7758
aI9378
aI2675
aI5556
aI8330
aI7751
aI3191
aI565
aI75
aI8693
aI6308
aI690
aI6034
aI5024
aI2965
aI1164
aI886
aI3569
aI4146
aI6047
aI9082
aI419
aI4291
aI7195
aI4377
aI3718
aI9165
aI2385
aI6181
aI1881
aI7716
aI118
aI3537
aI1212
aI778
aI7773
aI1797
aI749
aI2134
aI2154
aI3026
aI5941
aI1928
aI3783
aI7022
aI301
aI8249
aI8675
aI6456
aI8128
aI3419
aI1734
aI5510
aI5333
aI9130
aI6994
aI66
aI5671
aI3755
aI3996
aI4672
aI5860
aI7844
aI3927
aI3319
aI4270
aI1401
aI6919
aI249
aI1593
aI3372
aI7579
aI6724
aI44
aI5698
aI2111
aI1159
aI6617
aI866
aI1000
aI1239
aI4467
aI7096
aI5871
aI3464
aI6787
aI3006
aI454
aI8435
aI6158
aI5495
aI8664
aI7091
aI7963
aI7715
aI5982
aI7633
aI1361
aI3012
aI8551
aI2971
aI6010
aI8148
aI3865
aI125
aI223
aI1360
aI9274
aI2531
aI6730
aI2484
aI108
aI1603
aI8714
aI1651
aI4587
aI9149
aI2906
aI3064
aI7967
aI2001
aI9345
aI879
aI7886
aI6202
aI8390
aI3458
aI3610
aI3508
aI3231
aI7757
aI6185
aI6521
aI7392
aI1765
aI3388
aI8152
aI6028
aI1436
aI6017
aI9093
aI4108
aI8245
aI5673
aI6751
aI8093
aI782
aI2344
aI7291
aI542
aI2268
aI6283
aI6465
aI9247
aI5803
aI5257
aI4535
aI2660
aI4477
aI6774
aI1057
aI1916
aI3926
aI1486
aI3800
aI7063
aI6397
aI8073
aI5443
aI1268
aI2375
aI2753
aI953
aI4936
aI7062
aI4530
aI8572
aI5246
aI1188
aI874
aI6640
aI7752
aI7856
aI5284
aI242
aI3845
aI1832
aI5849
aI4792
aI4259
aI1055
aI9322
aI8268
aI4609
aI181
aI5036
aI2389
aI4556
aI2053
aI4075
aI4703
aI5815
aI3224
aI4304
aI3268
aI3350
aI8636
aI7185
aI9188
aI1715
aI4427
aI141
aI5154
aI5563
aI7388
aI1109
aI5948
aI8753
aI3415
aI8396
aI5414
aI1678
aI5870
aI1090
aI2193
aI6828
aI6649
aI2410
aI9467
aI6602
aI3702
aI6696
aI8684
aI694
aI8914
aI7014
aI7617
aI8508
aI3564
aI2255
aI1674
aI3460
aI4147
aI335
aI8445
aI7986
aI1761
aI909
aI7129
aI4902
aI5029
aI3313
aI1654
aI6551
aI5709
aI4018
aI6861
aI9255
aI9519
aI3152
aI6505
aI52
aI5731
aI1681
aI3541
aI6196
aI4389
aI6418
aI7748
aI3076
aI7019
aI5771
aI3181
aI3284
aI6184
aI2758
aI4929
aI2888
aI3543
aI4657
aI1201
aI4531
aI2054
aI1341
aI3155
aI5111
aI409
aI4943
aI3851
aI2701
aI3510
aI198
aI7245
aI4678
aI5422
aI8498
aI8289
aI2837
aI475
aI846
aI8970
aI1487
aI7331
aI5906
aI2298
aI7650
aI8713
aI9106
aI7802
aI5791
aI7135
aI8943
aI5464
aI6025
aI4025
aI8910
aI6298
aI7547
aI7350
aI3837
aI1478
aI7282
aI8777
aI2393
aI4611
aI6039
aI3240
aI6719
aI525
aI2153
aI2338
aI3964
aI7134
aI4780
aI8362
aI1896
aI3655
aI7408
aI4023
aI5687
aI2085
aI1708
aI8095
aI413
aI7529
aI4392
aI5440
aI6720
aI2770
aI4365
aI873
aI487
aI3948
aI8863
aI1407
aI4493
aI14
aI4133
aI2128
aI4114
aI5237
aI4584
aI1814
aI3593
aI528
aI1790
aI716
aI7080
aI4227
aI2572
aI2999
aI2400
aI8371
aI7597
aI3894
aI2956
aI4501
aI3118
aI7416
aI1883
aI2348
aI8787
aI4547
aI5705
aI7109
aI626
aI6352
aI4308
aI7548
aI1203
aI7914
aI2360
aI7987
aI4684
aI2381
aI1893
aI5990
aI7293
aI4768
aI1014
aI6032
aI8461
aI8479
aI4765
aI5059
aI1948
aI6527
aI9174
aI9119
aI4636
aI4728
aI2105
aI2124
aI1711
aI9182
aI3360
aI7728
aI6324
aI6173
aI9506
aI1233
aI221
aI8030
aI7467
aI908
aI7962
aI8976
aI3377
aI2894
aI3987
aI5602
aI5923
aI1206
aI1537
aI6488
aI1990
aI293
aI179
aI123
aI6703
aI7265
aI4067
aI829
aI8980
aI8135
aI9369
aI2149
aI8393
aI653
aI7845
aI6948
aI98
aI9463
aI6538
aI2749
aI6331
aI2102
aI3402
aI4264
aI2388
aI115
aI1393
aI8812
aI8118
aI3078
aI9018
aI2717
aI138
aI4460
aI4354
aI5175
aI4537
aI4504
aI5473
aI1285
aI2037
aI9288
aI6891
aI5235
aI6023
aI2346
aI612
aI3034
aI7873
aI8328
aI8627
aI5654
aI2786
aI2813
aI7553
aI5449
aI3315
aI4231
aI380
aI1865
aI1594
aI6475
aI6913
aI2914
aI5775
aI8670
aI7454
aI9163
aI622
aI6824
aI4871
aI2620
aI7952
aI8009
aI6760
aI4578
aI1649
aI8259
aI952
aI127
aI389
aI4758
aI5640
aI8847
aI1422
aI2175
aI6610
aI5428
aI6374
aI6249
aI1531
aI7940
aI5386
aI5163
aI7232
aI279
aI4386
aI5805
aI8962
aI5181
aI3289
aI9359
aI292
aI8187
aI8891
aI6503
aI6165
aI226
aI1997
aI6902
aI5120
aI8500
aI6153
aI4083
aI721
aI5014
aI4086
aI1476
aI7491
aI506
aI8281
aI8567
aI7075
aI4448
aI5297
aI9313
aI5538
aI3635
aI4221
aI4313
aI4857
aI8881
aI1163
aI8697
aI4681
aI7271
aI9064
aI994
aI8562
aI4366
aI1926
aI6187
aI250
aI4999
aI8774
aI1420
aI3932
aI1949
aI3004
aI7333
aI466
aI3757
aI2643
aI3670
aI3751
aI8
aI8481
aI5372
aI7660
aI7591
aI4087
aI2304
aI7298
aI2176
aI1914
aI6083
aI8570
aI2376
aI2372
aI2736
aI674
aI7301
aI6226
aI4974
aI5552
aI6898
aI9011
aI7142
aI3852
aI7667
aI6312
aI4202
aI2391
aI2604
aI2580
aI258
aI6697
aI2309
aI6235
aI8745
aI9147
aI1458
aI196
aI5121
aI8779
aI9410
aI6811
aI6704
aI1965
aI1023
aI7762
aI7956
aI3708
aI97
aI3251
aI7702
aI5071
aI7618
aI6597
aI9277
aI6264
aI8935
aI3571
aI7530
aI6748
aI8760
aI558
aI9283
aI4164
aI4827
aI1218
aI5042
aI165
aI1448
aI5057
aI3051
aI8112
aI3761
aI987
aI1323
aI8930
aI621
aI1977
aI284
aI8468
aI5939
aI7493
aI1699
aI7973
aI212
aI3422
aI6541
aI222
aI1311
aI89
aI8893
aI827
aI6542
aI7834
aI6384
aI6232
aI3705
aI6248
aI4041
aI8988
aI84
aI5500
aI2265
aI455
aI2683
aI1631
aI2779
aI7616
aI3547
aI5898
aI4356
aI645
aI6438
aI2721
aI9371
aI6596
aI2652
aI2187
aI8386
aI8120
aI6127
aI428
aI687
aI7706
aI5124
aI8655
aI5408
aI446
aI8092
aI5983
aI597
aI3059
aI5766
aI1714
aI6345
aI8394
aI2332
aI6190
aI553
aI2486
aI2367
aI9145
aI5856
aI8459
aI3439
aI5798
aI1774
aI8248
aI4981
aI8672
aI7815
aI8854
aI81
aI8512
aI3768
aI2534
aI6667
aI559
aI360
aI178
aI2992
aI2121
aI8405
aI3528
aI7803
aI8628
aI2996
aI8375
aI1400
aI4255
aI4820
aI4183
aI7806
aI644
aI5451
aI7384
aI5147
aI7710
aI4066
aI3620
aI3063
aI5829
aI3557
aI21
aI5309
aI5183
aI719
aI9044
aI1616
aI9382
aI260
aI9196
aI6310
aI893
aI1801
aI7242
aI7744
aI8064
aI4434
aI9447
aI5843
aI4492
aI1800
aI1444
aI7456
aI870
aI416
aI8317
aI4739
aI1589
aI8084
aI1538
aI7438
aI5306
aI3126
aI3517
aI3147
aI92
aI8892
aI5639
aI8894
aI5213
aI7186
aI2252
aI572
aI4817
aI1230
aI6630
aI6785
aI4364
aI5217
aI3150
aI2439
aI1904
aI8474
aI3885
aI4889
aI1139
aI4566
aI5967
aI6845
aI1266
aI8401
aI7693
aI3129
aI7512
aI8864
aI8643
aI6508
aI7572
aI1440
aI493
aI5613
aI4748
aI2215
aI4135
aI1569
aI686
aI1559
aI7741
aI2387
aI1102
aI290
aI3146
aI2035
aI6293
aI2617
aI2925
aI8166
aI5627
aI6346
aI7051
aI7170
aI7603
aI9482
aI4988
aI3196
aI1831
aI718
aI5794
aI7739
aI4567
aI5827
aI8416
aI4832
aI2715
aI2627
aI1356
aI6430
aI3621
aI4940
aI220
aI4887
aI2802
aI727
aI609
aI8738
aI4982
aI254
aI8233
aI6830
aI2831
aI3920
aI6895
aI8912
aI8674
aI906
aI2804
aI4673
aI523
aI3642
aI6612
aI1739
aI5708
aI7104
aI5238
aI2463
aI2379
aI4169
aI7678
aI8979
aI4128
aI3967
aI8798
aI3752
aI571
aI4749
aI6368
aI9520
aI1639
aI3389
aI3250
aI798
aI7690
aI3264
aI6877
aI1523
aI923
aI1953
aI6402
aI6379
aI3344
aI1690
aI2269
aI6959
aI4932
aI3123
aI2797
aI2453
aI1853
aI7053
aI579
aI5780
aI6804
aI6976
aI1746
aI7574
aI2506
aI6829
aI8113
aI217
aI6818
aI6586
aI1303
aI8807
aI3565
aI1839
aI2211
aI7249
aI1976
aI867
aI2629
aI6873
aI7324
aI9303
aI1144
aI3556
aI5135
aI4112
aI2565
aI3265
aI1749
aI8137
aI2680
aI8212
aI7112
aI7211
aI7999
aI5020
aI1408
aI5282
aI864
aI3957
aI9334
aI139
aI2656
aI3602
aI26
aI4695
aI4338
aI8456
aI8947
aI2820
aI5814
aI5304
aI4013
aI7357
aI8700
aI6108
aI5963
aI4078
aI681
aI3969
aI3149
aI5867
aI6113
aI932
aI2686
aI1406
aI5337
aI8883
aI9028
aI6110
aI5835
aI286
aI4156
aI4658
aI8952
aI2361
aI5251
aI8800
aI6470
aI1369
aI2339
aI5652
aI2697
aI2714
aI6123
aI8601
aI4635
aI3489
aI3387
aI2022
aI2203
aI1818
aI2095
aI1886
aI288
aI6532
aI1112
aI7255
aI691
aI6183
aI5547
aI6892
aI810
aI3680
aI1211
aI9401
aI3597
aI2127
aI2347
aI2577
aI7749
aI2386
aI3427
aI3494
aI6595
aI8423
aI4989
aI7813
aI3836
aI1806
aI6944
aI1034
aI8874
aI9253
aI1048
aI5218
aI856
aI9434
aI1331
aI3774
aI4913
aI5447
aI6380
aI5561
aI5240
aI9440
aI3579
aI1885
aI8203
aI4489
aI149
aI8397
aI7370
aI2594
aI6142
aI2297
aI684
aI3145
aI9445
aI835
aI1804
aI642
aI7879
aI8795
aI7495
aI7869
aI6004
aI1116
aI308
aI3295
aI3204
aI2694
aI3850
aI5133
aI6653
aI7620
aI5809
aI9114
aI2724
aI6096
aI7095
aI4926
aI5715
aI187
aI6284
aI9351
aI8002
aI944
aI2307
aI8315
aI185
aI2390
aI2918
aI7215
aI6357
aI9433
aI8384
aI670
aI6572
aI4710
aI978
aI9422
aI7374
aI9132
aI9411
aI5323
aI9079
aI7817
aI1722
aI1208
aI4110
aI1659
aI2032
aI9231
aI2755
aI2579
aI2296
aI912
aI1504
aI9083
aI2266
aI5573
aI313
aI5086
aI6757
aI6662
aI8241
aI8635
aI8681
aI8871
aI5972
aI9315
aI6364
aI6272
aI4094
aI9373
aI9006
aI6353
aI2449
aI5295
aI6200
aI6258
aI3301
aI689
aI7439
aI1520
aI7501
aI8645
aI3733
aI7179
aI1043
aI515
aI8143
aI5420
aI375
aI6080
aI5363
aI5369
aI5055
aI132
aI3634
aI3601
aI8543
aI4345
aI131
aI2355
aI2884
aI8366
aI6268
aI4035
aI7013
aI8367
aI7464
aI5209
aI2342
aI9291
aI7076
aI3854
aI8229
aI8701
aI7471
aI8196
aI3062
aI5223
aI4950
aI3784
aI3254
aI9099
aI826
aI2446
aI6213
aI5931
aI5319
aI6771
aI4349
aI3183
aI3944
aI685
aI1675
aI7711
aI7961
aI8911
aI2201
aI9389
aI7556
aI918
aI8051
aI2562
aI8857
aI2854
aI5845
aI3766
aI1073
aI3909
aI1186
aI7634
aI574
aI7355
aI1349
aI1465
aI5543
aI889
aI6728
aI2805
aI5694
aI1423
aI1543
aI8346
aI1415
aI1149
aI6684
aI61
aI1282
aI2767
aI9497
aI4667
aI7005
aI664
aI3953
aI8090
aI756
aI4336
aI5604
aI5132
aI3367
aI5221
aI7905
aI5035
aI7996
aI3876
aI4267
aI2416
aI2665
aI7190
aI7165
aI7264
aI8711
aI2162
aI1882
aI8207
aI4383
aI1955
aI154
aI2042
aI7713
aI9104
aI3096
aI3403
aI1354
aI480
aI4796
aI8873
aI8554
aI3368
aI8446
aI9429
aI7360
aI9390
aI7979
aI1875
aI469
aI8178
aI2529
aI8642
aI6839
aI5141
aI9031
aI7102
aI5442
aI5097
aI5002
aI2115
aI414
aI6687
aI8353
aI8654
aI4532
aI4019
aI586
aI8876
aI2080
aI6419
aI3921
aI8100
aI4311
aI9005
aI8014
aI3902
aI5373
aI3811
aI9478
aI3487
aI4431
aI2452
aI2972
aI4860
aI629
aI4549
aI6325
aI823
aI6498
aI4196
aI2784
aI3355
aI2576
aI6769
aI2638
aI1424
aI3353
aI6062
aI938
aI4137
aI1197
aI773
aI6263
aI4819
aI7789
aI4181
aI9415
aI710
aI5484
aI812
aI4288
aI7533
aI5489
aI2051
aI2046
aI8637
aI1668
aI2589
aI82
aI5940
aI7386
aI7743
aI3843
aI2591
aI7563
aI321
aI3900
aI6378
aI2231
aI2677
aI6172
aI4548
aI7213
aI4855
aI3213
aI5247
aI7761
aI5807
aI4641
aI1636
aI4875
aI733
aI6530
aI8018
aI8889
aI9431
aI5649
aI6940
aI5945
aI6632
aI2695
aI3951
aI2005
aI8721
aI4503
aI7273
aI7712
aI8879
aI2207
aI4714
aI7925
aI2900
aI9320
aI8909
aI5290
aI928
aI6053
aI8001
aI2155
aI8869
aI4256
aI7295
aI6074
aI2173
aI8301
aI5292
aI3060
aI607
aI7105
aI1912
aI3866
aI76
aI7247
aI5354
aI8190
aI2800
aI9154
aI1070
aI661
aI4502
aI1696
aI3804
aI7099
aI8043
aI8968
aI6943
aI8644
aI2773
aI8555
aI8632
aI7448
aI320
aI1256
aI6285
aI2431
aI6752
aI6977
aI7207
aI2406
aI1781
aI1364
aI4814
aI2817
aI7933
aI970
aI4555
aI5866
aI8707
aI4958
aI8678
aI7178
aI9236
aI5743
aI8647
aI6029
aI7841
aI7184
aI5310
aI2961
aI6735
aI1557
aI280
aI7424
aI3749
aI2737
aI5597
aI1461
aI453
aI2494
aI9328
aI2409
aI2109
aI6269
aI5847
aI9252
aI4179
aI2397
aI7714
aI1158
aI1638
aI4701
aI564
aI5008
aI9166
aI6217
aI5943
aI8941
aI2630
aI394
aI7152
aI1995
aI470
aI1405
aI5688
aI4187
aI3993
aI8803
aI231
aI2136
aI1501
aI8059
aI6562
aI2719
aI3735
aI7375
aI5981
aI169
aI543
aI9339
aI1319
aI5821
aI8443
aI444
aI4044
aI5511
aI8595
aI7244
aI3689
aI3255
aI7050
aI841
aI8411
aI7240
aI4240
aI7024
aI921
aI7567
aI3809
aI551
aI5822
aI4081
aI2586
aI8116
aI2563
aI5697
aI2125
aI4993
aI3411
aI3741
aI1517
aI4608
aI1552
aI1607
aI1326
aI6884
aI4614
aI3005
aI8539
aI8995
aI5530
aI2641
aI2465
aI7365
aI949
aI4320
aI2455
aI956
aI4650
aI6038
aI484
aI8666
aI2039
aI6195
aI6847
aI8332
aI1851
aI1980
aI6076
aI2131
aI4430
aI418
aI2210
aI929
aI4411
aI2842
aI326
aI7198
aI5934
aI8333
aI2209
aI2052
aI1298
aI1140
aI2000
aI9332
aI8493
aI17
aI5590
aI4879
aI7366
aI3970
aI391
aI8197
aI1192
aI5633
aI1477
aI1328
aI4919
aI9134
aI2935
aI2551
aI8225
aI5202
aI1016
aI7251
aI5876
aI7980
aI9360
aI400
aI3619
aI5751
aI426
aI2844
aI4444
aI6256
aI4074
aI2751
aI1629
aI3407
aI4195
aI876
aI6537
aI2907
aI4785
aI8585
aI2619
aI1449
aI9375
aI1984
aI910
aI8744
aI3937
aI7341
aI1281
aI2192
aI7807
aI1447
aI5125
aI6590
aI7167
aI5503
aI3412
aI162
aI9297
aI5425
aI1679
aI5927
aI6408
aI3496
aI8485
aI6754
aI1666
aI4276
aI9159
aI281
aI4419
aI5460
aI8476
aI6989
aI1372
aI5622
aI4782
aI1032
aI6097
aI3451
aI5779
aI7323
aI4358
aI5970
aI5470
aI6931
aI3273
aI7892
aI4258
aI4282
aI2101
aI2856
aI9325
aI7775
aI8648
aI6502
aI1950
aI27
aI9326
aI9472
aI3115
aI4047
aI2539
aI6882
aI4818
aI6239
aI7393
aI3001
aI1481
aI3142
aI7953
aI1042
aI3589
aI478
aI2903
aI7219
aI8209
aI6561
aI96
aI1834
aI8950
aI5570
aI4289
aI7787
aI1121
aI8588
aI6449
aI8295
aI521
aI6087
aI2183
aI4038
aI166
aI7486
aI6282
aI7938
aI2041
aI5806
aI4585
aI3981
aI884
aI7330
aI3043
aI8080
aI4630
aI6425
aI7268
aI2822
aI830
aI1117
aI4683
aI1753
aI372
aI1450
aI8250
aI5816
aI2273
aI3514
aI4823
aI6840
aI2478
aI8321
aI8414
aI4310
aI1152
aI7995
aI4155
aI6138
aI844
aI5985
aI2117
aI819
aI5417
aI1468
aI5581
aI724
aI6367
aI1123
aI2182
aI6171
aI5391
aI2986
aI8898
aI3819
aI7927
aI2785
aI7321
aI9337
aI3570
aI8784
aI5320
aI2945
aI4396
aI211
aI1074
aI1898
aI8319
aI3228
aI984
aI2027
aI9260
aI2165
aI4253
aI500
aI1509
aI1427
aI5252
aI9026
aI5312
aI6170
aI9385
aI4545
aI6981
aI2404
aI617
aI7283
aI5019
aI1184
aI2302
aI7254
aI1234
aI7484
aI4234
aI2671
aI4476
aI7628
aI6446
aI505
aI9226
aI7200
aI4151
aI7645
aI8527
aI8176
aI8896
aI6853
aI7718
aI4540
aI5727
aI351
aI522
aI1492
aI2881
aI9301
aI3374
aI5379
aI4015
aI8342
aI3521
aI2230
aI1167
aI6550
aI6942
aI4863
aI1967
aI1180
aI1743
aI7120
aI9178
aI7776
aI3061
aI8884
aI5339
aI4775
aI1278
aI5772
aI8140
aI6255
aI1391
aI6670
aI7991
aI7580
aI6399
aI6934
aI5933
aI9125
aI241
aI2949
aI1263
aI5928
aI7943
aI5625
aI8620
aI969
aI8858
aI7652
aI1104
aI9508
aI7937
aI4316
aI1938
aI2689
aI9103
aI1035
aI2006
aI2038
aI6714
aI3175
aI6676
aI9230
aI999
aI9124
aI1871
aI6036
aI5998
aI3177
aI900
aI4020
aI8835
aI2679
aI801
aI7363
aI8246
aI9296
aI3661
aI8849
aI4771
aI6354
aI6252
aI1353
aI6458
aI5142
aI2823
aI5301
aI2774
aI6453
aI2583
aI5497
aI5813
aI6783
aI6021
aI1813
aI1287
aI6254
aI1271
aI7897
aI3307
aI7223
aI5445
aI8264
aI8813
aI4565
aI5485
aI4008
aI3931
aI8578
aI4557
aI6002
aI5031
aI1336
aI948
aI6400
aI5117
aI7666
aI4475
aI7859
aI450
aI6951
aI2374
aI2493
aI9412
aI3588
aI6146
aI6499
aI5541
aI2834
aI3399
aI5988
aI8568
aI9198
aI4002
aI7194
aI580
aI2276
aI1484
aI147
aI1193
aI5911
aI4424
aI8449
aI1054
aI2204
aI3647
aI6429
aI7056
aI6511
aI3469
aI7340
aI705
aI6770
aI7327
aI8975
aI7007
aI3133
aI7449
aI3472
aI7560
aI3901
aI3869
aI4651
aI9264
aI3452
aI7202
aI936
aI2218
aI501
aI5478
aI6624
aI5662
aI3959
aI3904
aI3241
aI5281
aI7345
aI6052
aI53
aI5783
aI8942
aI3200
aI8923
aI4325
aI8382
aI6693
aI4116
aI678
aI2059
aI1358
aI6782
aI6605
aI6996
aI4509
aI5258
aI4987
aI8519
aI2754
aI2958
aI843
aI8505
aI780
aI2167
aI5313
aI4242
aI5568
aI5913
aI8598
aI3997
aI2783
aI6576
aI6041
aI6962
aI6251
aI4152
aI9212
aI9282
aI3626
aI2985
aI7878
aI4574
aI1541
aI7201
aI567
aI7299
aI5293
aI2555
aI6639
aI6695
aI7061
aI4853
aI1277
aI4084
aI265
aI1483
aI6294
aI6426
aI6297
aI7252
aI3326
aI4825
aI3683
aI8504
aI2336
aI9304
aI6930
aI5078
aI2157
aI702
aI8726
aI6635
aI1068
aI8905
aI6122
aI4554
aI7587
aI1397
aI1037
aI95
aI877
aI5908
aI3386
aI2780
aI3609
aI1733
aI8685
aI914
aI529
aI6410
aI4387
aI6784
aI669
aI9235
aI1284
aI3605
aI4351
aI7780
aI5610
aI2018
aI227
aI4398
aI3527
aI3558
aI5318
aI6836
aI9206
aI7084
aI4440
aI7069
aI1648
aI8997
aI9461
aI7225
aI9153
aI5437
aI4797
aI5040
aI4284
aI2901
aI137
aI8497
aI3829
aI1685
aI7949
aI5706
aI3989
aI4969
aI1210
aI1815
aI839
aI9515
aI6116
aI6737
aI4220
aI2637
aI1302
aI3946
aI6543
aI7257
aI958
aI5000
aI3302
aI9101
aI3285
aI5768
aI4122
aI7632
aI4964
aI4983
aI4005
aI1395
aI5894
aI4057
aI3789
aI1262
aI4680
aI3102
aI3342
aI6462
aI3317
aI7224
aI1430
aI8066
aI3364
aI6027
aI7540
aI7285
aI4901
aI6797
aI6947
aI7767
aI7639
aI8439
aI7864
aI6316
aI5179
aI1324
aI5191
aI7294
aI9107
aI1031
aI3077
aI9115
aI7916
aI358
aI1404
aI3961
aI1825
aI8991
aI4307
aI3103
aI8651
aI8106
aI4408
aI323
aI4482
aI3007
aI6723
aI315
aI869
aI8133
aI5099
aI7931
aI87
aI7507
aI2608
aI8885
aI4339
aI449
aI9131
aI4894
aI6960
aI1775
aI761
aI1094
aI5219
aI6469
aI1910
aI6651
aI1884
aI2301
aI86
aI7230
aI1174
aI4474
aI437
aI1027
aI7458
aI468
aI2792
aI5509
aI2704
aI3239
aI7462
aI4524
aI6849
aI7359
aI6497
aI7664
aI9240
aI161
aI1280
aI570
aI7504
aI7541
aI7607
aI8866
aI64
aI7401
aI7320
aI6471
aI1183
aI3310
aI8356
aI4070
aI2475
aI6243
aI3055
aI1489
aI8086
aI4378
aI2324
aI4162
aI6436
aI2735
aI6109
aI1392
aI4244
aI7472
aI1852
aI2147
aI459
aI256
aI73
aI2331
aI4459
aI9468
aI277
aI481
aI9109
aI1307
aI3972
aI1462
aI5776
aI237
aI3775
aI7060
aI8336
aI1657
aI1078
aI5397
aI951
aI7631
aI5679
aI3297
aI1729
aI7303
aI6926
aI6800
aI6801
aI5004
aI5890
aI985
aI4507
aI6387
aI9353
aI269
aI3164
aI3860
aI2646
aI8186
aI4525
aI2984
aI1889
aI3618
aI1082
aI3053
aI683
aI4362
aI5539
aI6395
aI2362
aI8154
aI3190
aI9233
aI3381
aI1519
aI640
aI1572
aI7156
aI2420
aI74
aI9127
aI1161
aI5848
aI9177
aI6130
aI5146
aI51
aI4426
aI2073
aI2791
aI5757
aI5713
aI3924
aI3339
aI473
aI7183
aI3208
aI6734
aI425
aI9049
aI5049
aI9063
aI7626
aI2927
aI4842
aI7725
aI6493
aI5328
aI9248
aI1343
aI2742
aI4593
aI6428
aI5540
aI8992
aI7687
aI1410
aI8277
aI5488
aI2868
aI6163
aI4027
aI2291
aI4905
aI6685
aI5170
aI8948
aI1327
aI5072
aI9156
aI1091
aI8809
aI6214
aI8409
aI2674
aI2007
aI860
aI2517
aI2060
aI3684
aI5594
aI1409
aI4783
aI7189
aI9292
aI8309
aI383
aI5371
aI4287
aI4978
aI2318
aI334
aI4175
aI7418
aI7703
aI8208
aI8025
aI2574
aI5686
aI8581
aI6768
aI3802
aI2118
aI2072
aI5554
aI6614
aI8814
aI4700
aI4638
aI6182
aI5979
aI5611
aI2548
aI3779
aI5952
aI4741
aI9219
aI3550
aI6178
aI1276
aI793
aI3275
aI7750
aI7258
aI1906
aI6407
aI3058
aI8463
aI5404
aI865
aI7228
aI5937
aI9413
aI6805
aI7012
aI273
aI2920
aI5068
aI6024
aI6209
aI4911
aI7406
aI9300
aI4393
aI925
aI9380
aI1996
aI1921
aI6240
aI2063
aI3714
aI2571
aI4973
aI4816
aI70
aI4341
aI1720
aI2969
aI5492
aI230
aI6189
aI2728
aI2553
aI0
aI6633
aI5355
aI973
aI3828
aI5058
aI1856
aI8633
aI5645
aI8933
aI4717
aI9505
aI566
aI8237
aI4786
aI8177
aI245
aI4804
aI146
aI1273
aI392
aI5912
aI3122
aI9210
aI5609
aI5491
aI7430
aI1697
aI9471
aI3131
aI331
aI5685
aI8783
aI7480
aI174
aI5474
aI8669
aI4971
aI2561
aI318
aI234
aI8005
aI79
aI1857
aI8471
aI7003
aI2734
aI643
aI3110
aI6921
aI1655
aI6360
aI7246
aI1151
aI6666
aI8391
aI8919
aI3252
aI4712
aI5974
aI555
aI8728
aI328
aI6611
aI6867
aI5784
aI1499
aI3253
aI8946
aI2771
aI4314
aI5975
aI1902
aI3491
aI6846
aI7680
aI3440
aI1564
aI8680
aI229
aI270
aI8204
aI6992
aI657
aI6657
aI7326
aI357
aI4486
aI8569
aI3561
aI111
aI4517
aI5618
aI1861
aI2261
aI1625
aI3606
aI9142
aI3671
aI4707
aI8010
aI730
aI7389
aI8507
aI2612
aI1988
aI9347
aI1794
aI3911
aI6131
aI1767
aI1371
aI8529
aI703
aI7988
aI1717
aI2442
aI3423
aI8151
aI6682
aI8921
aI5861
aI1554
aI891
aI6479
aI1769
aI3278
aI6920
aI7329
aI83
aI7234
aI4844
aI1133
aI746
aI4483
aI9008
aI767
aI7653
aI814
aI1686
aI8044
aI1672
aI5973
aI4956
aI9204
aI4696
aI6148
aI3686
aI806
aI6982
aI760
aI4689
aI5896
aI3687
aI6955
aI1587
aI5259
aI3872
aI8111
aI4718
aI3906
aI7168
aI5532
aI8549
aI8856
aI3896
aI1248
aI2605
aI1189
aI9175
aI7527
aI1254
aI822
aI3373
aI361
aI4046
aI5505
aI494
aI8791
aI3979
aI5837
aI8834
aI6743
aI950
aI3187
aI6534
aI159
aI2161
aI4225
aI5626
aI3934
aI4822
aI4309
aI4713
aI6775
aI6807
aI679
aI2472
aI6717
aI1982
aI1877
aI6707
aI8398
aI1533
aI4961
aI6764
aI3731
aI6993
aI5922
aI6954
aI787
aI3279
aI1939
aI1576
aI5632
aI3099
aI216
aI2788
aI9262
aI6995
aI1595
aI1756
aI2077
aI5812
aI8506
aI5116
aI7288
aI6086
aI3445
aI7482
aI8520
aI541
aI5287
aI3107
aI1153
aI7259
aI7040
aI7842
aI637
aI5729
aI4090
aI8188
aI5653
aI7772
aI7415
aI7863
aI7037
aI6326
aI6841
aI1693
aI968
aI8906
aI745
aI4527
aI5661
aI6539
aI6563
aI1760
aI6598
aI4395
aI6592
aI9249
aI3891
aI5655
aI5840
aI3426
aI1
aI9150
aI5192
aI3488
aI3345
aI8931
aI4742
aI7031
aI3397
aI4607
aI7691
aI575
aI6729
aI5452
aI4352
aI144
aI5267
aI5851
aI5711
aI8797
aI990
aI6616
aI2987
aI5828
aI3184
aI9469
aI2922
aI5471
aI5949
aI7764
aI8436
aI9036
aI5523
aI7169
aI5381
aI119
aI7159
aI887
aI882
aI3507
aI3130
aI1114
aI4598
aI9144
aI117
aI2184
aI1922
aI5920
aI2700
aI5993
aI6006
aI3256
aI8477
aI2939
aI8872
aI2730
aI7307
aI9215
aI4546
aI7226
aI4980
aI1687
aI6218
aI3827
aI6147
aI6796
aI4533
aI5804
aI2955
aI672
aI8689
aI2759
aI3366
aI9480
aI2197
aI2468
aI8657
aI762
aI1374
aI1370
aI6718
aI8793
aI1257
aI6054
aI9051
aI1796
aI5112
aI8105
aI5103
aI7891
aI7045
aI1064
aI606
aI8494
aI4099
aI4708
aI3483
aI8223
aI6098
aI1808
aI5346
aI2639
aI4161
aI9152
aI7655
aI8464
aI1528
aI3081
aI804
aI588
aI2584
aI4512
aI6974
aI4868
aI4799
aI22
aI6857
aI2864
aI2357
aI7108
aI9197
aI3414
aI427
aI1219
aI7898
aI2017
aI4299
aI3880
aI2106
aI2170
aI5582
aI2259
aI5986
aI7755
aI7822
aI3328
aI1058
aI4451
aI5755
aI2432
aI699
aI5717
aI5712
aI5723
aI840
aI2776
aI4317
aI4965
aI6289
aI8031
aI776
aI6531
aI2673
aI8503
aI2766
aI6555
aI6732
aI4139
aI2074
aI8224
aI2756
aI3282
aI991
aI2535
aI8183
aI7032
aI618
aI1606
aI7554
aI1456
aI2567
aI8361
aI2830
aI2514
aI4694
aI7469
aI4385
aI7367
aI1709
aI8117
aI772
aI2013
aI8290
aI9294
aI6287
aI7586
aI765
aI7068
aI4774
aI7922
aI6483
aI3466
aI6680
aI9146
aI3732
aI5250
aI5991
aI4738
aI7794
aI8587
aI2214
aI5294
aI7485
aI4634
aI4772
aI8428
aI4190
aI2026
aI4931
aI4250
aI1664
aI3793
aI93
aI1439
aI7319
aI7483
aI2816
aI1187
aI1989
aI4952
aI3988
aI4350
aI748
aI2313
aI4954
aI2408
aI1647
aI6114
aI6296
aI1567
aI5149
aI650
aI316
aI5677
aI7338
aI8899
aI5016
aI1455
aI3662
aI3120
aI5907
aI7157
aI7901
aI4097
aI2768
aI5515
aI6104
aI2943
aI8363
aI2979
aI3008
aI9278
aI4326
aI319
aI9367
aI8102
aI668
aI1204
aI4803
aI2882
aI2368
aI1835
aI2552
aI1581
aI8017
aI858
aI8722
aI1221
aI9273
aI9048
aI1821
aI6012
aI859
aI5398
aI6756
aI7551
aI2113
aI381
aI4119
aI5926
aI3266
aI2132
aI3657
aI6515
aI6482
aI1880
aI4285
aI9418
aI7570
aI2598
aI5326
aI4908
aI3772
aI2545
aI518
aI4280
aI4829
aI3501
aI7123
aI8754
aI2234
aI9341
aI7766
aI4048
aI4647
aI9295
aI2722
aI2859
aI4045
aI3952
aI1375
aI3699
aI4542
aI5233
aI8450
aI39
aI1521
aI2148
aI448
aI2898
aI2716
aI5857
aI5914
aI4178
aI1129
aI2968
aI1846
aI7487
aI3679
aI4148
aI3820
aI4218
aI975
aI6105
aI6245
aI477
aI8162
aI6445
aI192
aI4534
aI4422
aI7872
aI7122
aI9088
aI1561
aI6066
aI5385
aI5274
aI8202
aI5145
aI3322
aI5605
aI1868
aI8732
aI2811
aI4761
aI6220
aI1718
aI6876
aI9224
aI7349
aI5291
aI7854
aI3712
aI3174
aI309
aI1108
aI6233
aI8542
aI1213
aI6136
aI2693
aI2427
aI4007
aI6971
aI1624
aI7820
aI3171
aI677
aI3776
aI3787
aI979
aI3437
aI8486
aI5430
aI1101
aI4840
aI1524
aI8221
aI7235
aI712
aI1308
aI2489
aI5918
aI5115
aI2568
aI9113
aI6332
aI489
aI3658
aI2168
aI8065
aI7888
aI5599
aI104
aI1738
aI1770
aI8069
aI2445
aI4465
aI1900
aI6208
aI8033
aI3031
aI8425
aI7161
aI1493
aI2090
aI6188
aI6548
aI4222
aI3203
aI8843
aI7720
aI5648
aI2279
aI173
aI6584
aI4414
aI7707
aI2669
aI8081
aI2840
aI7390
aI4261
aI2752
aI2743
aI379
aI980
aI6481
aI5716
aI3649
aI6692
aI4458
aI2470
aI4039
aI4807
aI3188
aI7206
aI1185
aI7311
aI596
aI8379
aI8056
aI5761
aI6048
aI510
aI2237
aI524
aI4539
aI7836
aI1437
aI3692
aI6008
aI1932
aI406
aI4397
aI4706
aI2570
aI4948
aI6238
aI350
aI460
aI8662
aI9066
aI1545
aI3976
aI8139
aI6203
aI824
aI422
aI9450
aI1707
aI3209
aI6988
aI5834
aI5842
aI1844
aI9504
aI8824
aI3623
aI1513
aI8600
aI6533
aI1083
aI6423
aI8418
aI128
aI4037
aI4498
aI526
aI356
aI5669
aI6211
aI4941
aI604
aI2066
aI3773
aI3378
aI3629
aI4648
aI6966
aI1676
aI6457
aI5756
aI8922
aI8532
aI791
aI5725
aI3794
aI2504
aI7861
aI5846
aI2377
aI6788
aI8761
aI3391
aI1954
aI6107
aI1887
aI5332
aI8618
aI9324
aI7059
aI2043
aI5765
aI5110
aI682
aI2016
aI2245
aI2757
aI1333
aI102
aI2034
aI4327
aI8254
aI6741
aI3459
aI4899
aI3716
aI1261
aI4205
aI6223
aI2916
aI3100
aI1911
aI4835
aI7918
aI6844
aI4263
aI1555
aI7675
aI7498
aI5817
aI1597
aI9348
aI8682
aI9420
aI1847
aI1125
aI2666
aI2164
aI6819
aI8559
aI7679
aI5635
aI5741
aI2274
aI3591
aI2021
aI7335
aI3211
aI1260
aI6659
aI4599
aI595
aI8370
aI2919
aI5107
aI5695
aI3631
aI72
aI3021
aI4405
aI7518
aI9473
aI3471
aI346
aI6156
aI8671
aI9308
aI2902
aI736
aI5951
aI8472
aI8094
aI2395
aI995
aI8495
aI6870
aI1173
aI3847
aI5921
aI8518
aI5747
aI8313
aI5162
aI9501
aI1588
aI2872
aI5109
aI4260
aI3704
aI303
aI5664
aI8708
aI2790
aI3493
aI2062
aI167
aI6984
aI443
aI6665
aI3889
aI5607
aI5902
aI3585
aI1160
aI945
aI3771
aI3246
aI6623
aI1684
aI2549
aI7216
aI3401
aI1971
aI4237
aI4032
aI6141
aI6129
aI1535
aI5900
aI2940
aI3465
aI6168
aI3173
aI7832
aI6117
aI5719
aI8665
aI6441
aI3812
aI3595
aI8467
aI3503
aI757
aI7821
aI5091
aI8255
aI8780
aI5279
aI6880
aI4098
aI6899
aI483
aI5138
aI31
aI2691
aI4883
aI7726
aI6306
aI1154
aI6103
aI7867
aI2050
aI648
aI7930
aI5832
aI9344
aI680
aI2190
aI8147
aI2995
aI6466
aI3861
aI6908
aI9492
aI8318
aI1713
aI589
aI4552
aI7284
aI8286
aI1991
aI3101
aI911
aI6868
aI5421
aI6246
aI461
aI1695
aI5255
aI1316
aI1222
aI7583
aI2595
aI9100
aI2708
aI8831
aI8920
aI8954
aI3447
aI8231
aI7266
aI5045
aI3400
aI4001
aI6573
aI8663
aI714
aI6843
aI9267
aI7425
aI9374
aI9309
aI7277
aI6607
aI3009
aI7763
aI4824
aI8526
aI8145
aI2020
aI5165
aI7582
aI2244
aI7947
aI276
aI7640
aI8227
aI7656
aI3915
aI4670
aI9189
aI1542
aI6018
aI5643
aI5800
aI563
aI7128
aI18
aI7674
aI8027
aI4589
aI2711
aI5749
aI8079
aI2177
aI3549
aI8282
aI3441
aI7054
aI2507
aI4036
aI5200
aI142
aI6228
aI7047
aI1721
aI8263
aI8736
aI2764
aI6905
aI4233
aI675
aI3413
aI2213
aI747
aI1380
aI7440
aI2934
aI4828
aI6777
aI5944
aI8737
aI177
aI4416
aI2327
aI3449
aI3567
aI6813
aI5811
aI768
aI1320
aI3738
aI4946
aI6688
aI384
aI2750
aI9080
aI8584
aI3365
aI7705
aI3895
aI2518
aI3114
aI7256
aI2718
aI8374
aI7606
aI4918
aI9033
aI4248
aI8571
aI6613
aI1124
aI2112
aI224
aI1255
aI7917
aI7954
aI8216
aI4877
aI5010
aI6267
aI2396
aI3331
aI9098
aI9403
aI6338
aI2795
aI8055
aI1920
aI2942
aI9010
aI1191
aI8075
aI2867
aI9211
aI9075
aI5128
aI1252
aI6075
aI3484
aI4709
aI8324
aI7231
aI7138
aI3504
aI7417
aI233
aI4922
aI8945
aI4692
aI2407
aI5456
aI6150
aI4217
aI1731
aI4106
aI4529
aI3159
aI7561
aI6056
aI8621
aI7992
aI3592
aI3990
aI1522
aI5482
aI2857
aI7571
aI2747
aI8198
aI4170
aI4406
aI4249
aI9022
aI2414
aI3690
aI3790
aI9187
aI9281
aI933
aI568
aI6883
aI3725
aI2319
aI7144
aI348
aI544
aI585
aI1575
aI3982
aI3362
aI6721
aI9096
aI880
aI1310
aI2649
aI200
aI4745
aI3293
aI2061
aI7899
aI5830
aI3583
aI4977
aI4596
aI7523
aI7818
aI116
aI8759
aI5901
aI8155
aI9037
aI3534
aI1927
aI5529
aI3274
aI633
aI9116
aI2469
aI2441
aI4521
aI214
aI8706
aI8599
aI9062
aI7397
aI4442
aI182
aI6013
aI458
aI2002
aI7318
aI3519
aI4229
aI2436
aI8547
aI7694
aI6155
aI1644
aI50
aI3186
aI4428
aI4588
aI5283
aI934
aI1780
aI7784
aI875
aI4872
aI8179
aI7276
aI43
aI6318
aI4933
aI8408
aI7387
aI7405
aI8537
aI3742
aI2546
aI8168
aI5228
aI7747
aI2349
aI1754
aI8802
aI3348
aI2685
aI6546
aI1960
aI219
aI3650
aI8531
aI3627
aI9257
aI2236
aI4029
aI9221
aI2334
aI6222
aI2137
aI2247
aI7549
aI9002
aI7300
aI3162
aI3973
aI3832
aI9040
aI5322
aI2808
aI5343
aI3540
aI5550
aI7910
aI4997
aI6749
aI5549
aI2284
aI6856
aI4752
aI4909
aI1646
aI7911
aI7942
aI3870
aI5171
aI7026
aI9384
aI1047
aI7884
aI4839
aI6192
aI9208
aI8042
aI3675
aI9400
aI988
aI2120
aI5786
aI3813
aI8195
aI5419
aI3106
aI1534
aI9060
aI8704
aI1464
aI5487
aI5378
aI6164
aI5862
aI8659
aI5759
aI4335
aI8335
aI5699
aI4415
aI6654
aI6279
aI8924
aI1913
aI4461
aI8016
aI3346
aI4124
aI7581
aI7531
aI904
aI6909
aI1426
aI1306
aI530
aI8715
aI4236
aI8236
aI6750
aI232
aI6776
aI4699
aI9003
aI8218
aI9194
aI4762
aI7659
aI7676
aI3897
aI2610
aI3910
aI4985
aI5925
aI8709
aI2836
aI41
aI2329
aI7404
aI7398
aI4232
aI8470
aI4204
aI5572
aI881
aI3429
aI8848
aI9164
aI833
aI1396
aI7160
aI630
aI1381
aI6742
aI8900
aI7882
aI5587
aI5168
aI3640
aI6809
aI2240
aI5893
aI2091
aI6376
aI8974
aI373
aI1692
aI1398
aI1120
aI5773
aI2250
aI54
aI5076
aI610
aI9141
aI5126
aI2975
aI5083
aI4051
aI3358
aI8965
aI1355
aI163
aI4200
aI4998
aI4209
aI7939
aI8447
aI1011
aI8088
aI5248
aI786
aI5384
aI6755
aI1033
aI8036
aI4876
aI8338
aI5850
aI9376
aI1809
aI1010
aI2932
aI2825
aI2069
aI3846
aI8273
aI457
aI4522
aI8028
aI1827
aI6022
aI7210
aI7328
aI3613
aI2651
aI2913
aI4101
aI8840
aI7657
aI283
aI1986
aI2659
aI7261
aI8432
aI9507
aI6403
aI2692
aI9129
aI4369
aI6575
aI599
aI3523
aI6686
aI9057
aI8389
aI5825
aI8989
aI4297
aI7704
aI6388
aI4103
aI6329
aI6827
aI3736
aI7908
aI5361
aI2557
aI8136
aI976
aI2496
aI9220
aI3614
aI2181
aI1224
aI8429
aI6007
aI3199
aI8868
aI2948
aI3744
aI1295
aI6979
aI3810
aI3207
aI4053
aI3532
aI5017
aI5601
aI7502
aI7778
aI6149
aI2328
aI7317
aI4306
aI300
aI7100
aI2199
aI1220
aI1565
aI9462
aI2732
aI2632
aI5176
aI3495
aI5311
aI8041
aI5544
aI8825
aI8694
aI7015
aI8222
aI7602
aI9017
aI3333
aI1683
aI5370
aI6089
aI7455
aI8987
aI5364
aI7364
aI2635
aI2104
aI5606
aI6500
aI4191
aI9311
aI9286
aI3622
aI246
aI6897
aI3069
aI1764
aI3139
aI1725
aI3745
aI5760
aI7312
aI8815
aI3153
aI7351
aI3529
aI4831
aI5887
aI834
aI8407
aI6958
aI1274
aI2597
aI7874
aI5702
aI1417
aI1793
aI9046
aI7116
aI2772
aI1506
aI6791
aI1867
aI9072
aI9489
aI8720
aI9193
aI5764
aI7146
aI1759
aI6973
aI4586
aI5280
aI5667
aI274
aI6215
aI2130
aI3474
aI1329
aI5656
aI1698
aI7468
aI9346
aI310
aI7356
aI8841
aI3511
aI1087
aI9502
aI3330
aI3086
aI7400
aI2962
aI1599
aI9318
aI2384
aI4283
aI3526
aI5844
aI1215
aI6910
aI1313
aI5242
aI8902
aI3435
aI4388
aI8302
aI2023
aI9090
aI5476
aI5254
aI2010
aI8419
aI6806
aI4716
aI9058
aI8387
aI7692
aI7470
aI4893
aI62
aI1199
aI8660
aI1628
aI1066
aI1084
aI5413
aI7629
aI8591
aI1402
aI7044
aI2875
aI6120
aI4619
aI6740
aI6834
aI3041
aI9184
aI4628
aI5881
aI4514
aI4790
aI4606
aI8045
aI3067
aI6629
aI6852
aI4251
aI6945
aI8821
aI8617
aI4888
aI7804
aI2491
aI4468
aI8833
aI6549
aI2946
aI8279
aI2459
aI4337
aI788
aI9285
aI8131
aI1289
aI4418
aI624
aI411
aI2185
aI7002
aI516
aI4849
aI8583
aI7421
aI2609
aI3955
aI1878
aI197
aI8594
aI4246
aI3822
aI8904
aI2871
aI6333
aI5296
aI1700
aI3369
aI6064
aI5461
aI1993
aI5396
aI3652
aI1820
aI1630
aI8115
aI2503
aI1502
aI9171
aI4333
aI9136
aI2870
aI5264
aI6427
aI4373
aI442
aI7685
aI7289
aI9032
aI1758
aI4702
aI4455
aI285
aI8269
aI8240
aI2398
aI2667
aI2208
aI2543
aI3434
aI4891
aI3833
aI6020
aI8173
aI6587
aI6451
aI396
aI4212
aI7218
aI1680
aI7536
aI378
aI1051
aI8150
aI4595
aI7932
aI7611
aI3430
aI8652
aI1736
aI6885
aI1645
aI2963
aI1297
aI7945
aI5345
aI9078
aI6363
aI6271
aI1608
aI6938
aI6985
aI3022
aI5483
aI1895
aI1351
aI6177
aI5740
aI6140
aI993
aI2564
aI5277
aI2179
aI6489
aI3270
aI7701
aI5063
aI9516
aI8400
aI4930
aI6726
aI5966
aI8000
aI7197
aI2838
aI7305
aI2981
aI3456
aI5924
aI3599
aI3467
aI7278
aI5136
aI1957
aI1330
aI6396
aI9343
aI6495
aI1610
aI8842
aI7494
aI3677
aI369
aI158
aI4791
aI1146
aI1556
aI562
aI4394
aI2047
aI2426
aI896
aI2462
aI365
aI7034
aI4671
aI6362
aI7599
aI2858
aI4859
aI3720
aI5119
aI5388
aI3868
aI4491
aI3079
aI5637
aI1179
aI1958
aI272
aI5098
aI8677
aI1245
aI8852
aI3930
aI1131
aI4357
aI5122
aI2861
aI3884
aI6802
aI8818
aI7950
aI8158
aI1022
aI56
aI8755
aI9521
aI5950
aI6991
aI180
aI3017
aI5308
aI7175
aI3338
aI2892
aI8441
aI2924
aI5519
aI5961
aI3485
aI1382
aI9054
aI7290
aI897
aI4564
aI9511
aI3728
aI1196
aI2422
aI5245
aI8608
aI3696
aI2419
aI371
aI107
aI2283
aI3361
aI3492
aI1744
aI2509
aI8455
aI7304
aI1909
aI1584
aI7669
aI4235
aI3234
aI1952
aI5366
aI3840
aI4906
aI3144
aI5853
aI1038
aI4830
aI6180
aI6336
aI8462
aI8378
aI3807
aI6317
aI3874
aI6582
aI8311
aI2989
aI8763
aI1549
aI5376
aI7188
aI2618
aI8565
aI8355
aI5733
aI2599
aI5481
aI3341
aI7997
aI4580
aI60
aI853
aI1810
aI1299
aI4446
aI1566
aI9439
aI5155
aI2853
aI6275
aI8985
aI1843
aI965
aI8383
aI1136
aI2306
aI5575
aI7903
aI172
aI4174
aI8310
aI4423
aI7057
aI7791
aI4189
aI4324
aI9451
aI4076
aI6875
aI2033
aI6634
aI6454
aI7792
aI2727
aI5690
aI4773
aI6323
aI5062
aI5872
aI7173
aI1366
aI2588
aI8925
aI2530
aI5033
aI5438
aI99
aI5022
aI4153
aI8963
aI7325
aI4343
aI8553
aI5551
aI1598
aI4296
aI311
aI7036
aI4631
aI7177
aI4072
aI6661
aI6390
aI90
aI3450
aI2613
aI1147
aI403
aI9014
aI3624
aI5085
aI9419
aI6620
aI6301
aI5037
aI9214
aI1937
aI3042
aI1786
aI1789
aI1816
aI3218
aI5148
aI1155
aI1507
aI5878
aI3929
aI4420
aI9237
aI3888
aI8121
aI5169
aI5021
aI3824
aI5236
aI7272
aI1526
aI2622
aI4300
aI8205
aI7621
aI9290
aI191
aI8649
aI8341
aI1745
aI2885
aI8185
aI3682
aI9259
aI1622
aI5101
aI9034
aI134
aI4437
aI8349
aI5012
aI4668
aI7451
aI4882
aI3210
aI2443
aI3269
aI1869
aI3522
aI6474
aI8134
aI5077
aI8422
aI723
aI6932
aI5329
aI3033
aI5929
aI1660
aI8882
aI4581
aI6731
aI9453
aI5222
aI7534
aI8267
aI7443
aI5190
aI498
aI8359
aI4979
aI4660
aI2195
aI6311
aI3581
aI8528
aI1362
aI156
aI1811
aI5465
aI1008
aI6145
aI697
aI3163
aI6655
aI3083
aI3052
aI2931
aI2450
aI2254
aI7006
aI5249
aI4880
aI5362
aI9409
aI7781
aI4516
aI8523
aI8639
aI7545
aI883
aI6822
aI2337
aI7221
aI6443
aI4359
aI8492
aI8918
aI5039
aI306
aI1294
aI907
aI3444
aI8142
aI5888
aI5710
aI2738
aI5909
aI8577
aI3842
aI1637
aI3706
aI1178
aI581
aI8465
aI3137
aI2731
aI8296
aI4755
aI7437
aI2520
aI2460
aI2912
aI533
aI6896
aI2418
aI6044
aI2763
aI5897
aI8615
aI8751
aI6303
aI6833
aI2031
aI6823
aI5382
aI1669
aI9493
aI2087
aI9228
aI5882
aI2536
aI1858
aI4193
aI2058
aI8616
aI7828
aI1859
aI3113
aI3694
aI4731
aI6588
aI1719
aI1933
aI1560
aI7654
aI3470
aI3050
aI6509
aI1508
aI5064
aI1040
aI5589
aI106
aI6194
aI7376
aI202
aI6937
aI8364
aI1305
aI5104
aI8015
aI8271
aI3782
aI5210
aI8350
aI855
aI534
aI4686
aI1134
aI584
aI3311
aI7689
aI1611
aI902
aI355
aI2647
aI6990
aI5634
aI8253
aI1236
aI6566
aI8096
aI8522
aI2993
aI4644
aI3354
aI8174
aI1632
aI9055
aI2983
aI2974
aI6221
aI5691
aI3830
aI1421
aI486
aI5156
aI7900
aI5567
aI2696
aI8772
aI9209
aI4770
aI1510
aI129
aI9426
aI3737
aI4127
aI6369
aI3553
aI7118
aI1701
aI4656
aI6619
aI464
aI2378
aI4022
aI6600
aI2826
aI698
aI2485
aI3762
aI1849
aI4328
aI803
aI7039
aI1940
aI851
aI238
aI593
aI3308
aI7010
aI3596
aI2815
aI3272
aI1752
aI6320
aI6452
aI7025
aI7809
aI7238
aI4764
aI8153
aI4862
aI514
aI7154
aI1650
aI7373
aI502
aI7990
aI1551
aI8596
aI3778
aI2224
aI1095
aI421
aI2709
aI4925
aI3212
aI7688
aI4972
aI5137
aI8688
aI6559
aI7098
aI3653
aI7544
aI7077
aI5429
aI4305
aI4140
aI7453
aI8804
aI628
aI1002
aI8434
aI8614
aI3879
aI9448
aI5206
aI7890
aI8593
aI6627
aI3667
aI3396
aI5718
aI7774
aI7670
aI8533
aI6115
aI4637
aI5507
aI9112
aI4795
aI3995
aI8683
aI9052
aI6918
aI2403
aI8496
aI4834
aI5704
aI8189
aI7768
aI977
aI6589
aI8050
aI4030
aI1495
aI1973
aI4295
aI7368
aI4723
aI709
aI2505
aI9205
aI1457
aI4966
aI1470
aI8402
aI4321
aI2662
aI7600
aI278
aI4088
aI6278
aI7313
aI986
aI1264
aI7521
aI1915
aI6929
aI3535
aI8758
aI2558
aI368
aI7696
aI2373
aI960
aI6106
aI8297
aI3659
aI3202
aI6416
aI7382
aI5905
aI8541
aI2994
aI2152
aI8934
aI8078
aI8731
aI3727
aI1166
aI3644
aI4168
aI8938
aI5327
aI2909
aI5501
aI732
aI3651
aI8490
aI5976
aI6972
aI7412
aI4100
aI8454
aI2540
aI667
aI5722
aI9111
aI3290
aI590
aI4384
aI5956
aI6035
aI4705
aI3615
aI4063
aI7336
aI160
aI693
aI2607
aI3382
aI7686
aI4573
aI2500
aI3960
aI5046
aI1626
aI7181
aI8159
aI6265
aI6738
aI8870
aI9381
aI2855
aI32
aI4662
aI4390
aI5542
aI4575
aI6713
aI1217
aI8308
aI4976
aI4157
aI4252
aI4060
aI5043
aI8184
aI7114
aI3625
aI4837
aI4917
aI9362
aI8691
aI9265
aI6545
aI7614
aI6330
aI1972
aI7227
aI7866
aI3016
aI3791
aI6851
aI6262
aI2915
aI3097
aI4729
aI5108
aI9402
aI5393
aI7970
aI9358
aI5676
aI4450
aI7889
aI4698
aI213
aI5616
aI6599
aI2138
aI5796
aI8626
aI1870
aI23
aI6179
aI8794
aI8734
aI7848
aI1505
aI1892
aI8258
aI6100
aI4951
aI1785
aI4281
aI8047
aI4747
aI1463
aI9398
aI560
aI5100
aI7575
aI2474
aI1850
aI1368
aI7125
aI3515
aI955
aI5964
aI7046
aI5056
aI67
aI7505
aI2370
aI5680
aI8829
aI7508
aI1828
aI3091
aI3454
aI587
aI8782
aI3084
aI2725
aI1157
aI228
aI939
aI6747
aI4330
aI2325
aI1944
aI65
aI4275
aI5347
aI6606
aI1067
aI3238
aI7919
aI6071
aI6094
aI7212
aI402
aI8724
aI7074
aI6711
aI5178
aI6939
aI239
aI5858
aI7110
aI5316
aI5075
aI2380
aI2959
aI3395
aI8977
aI3271
aI4485
aI5728
aI1771
aI4303
aI5629
aI9218
aI4845
aI472
aI1855
aI7021
aI8880
aI4123
aI6261
aI9340
aI6512
aI6712
aI1604
aI4126
aI9306
aI1194
aI5426
aI4223
aI8125
aI7461
aI5338
aI8175
aI7433
aI7423
aI1583
aI7407
aI8052
aI623
aI2458
aI1169
aI1497
aI4970
aI37
aI5752
aI2411
aI8916
aI9514
aI3193
aI4944
aI4379
aI5734
aI4841
aI6773
aI4867
aI5546
aI962
aI1240
aI7700
aI1994
aI3072
aI5526
aI2141
aI7066
aI1365
aI8020
aI6339
aI8525
aI6472
aI2628
aI8251
aI3603
aI6817
aI9272
aI140
aI5762
aI1442
aI7450
aI8613
aI7474
aI1727
aI6011
aI433
aI3654
aI8325
aI330
aI6790
aI431
aI6761
aI9157
aI6207
aI7496
aI7065
aI5619
aI5406
aI7959
aI6095
aI8719
aI4391
aI9173
aI4332
aI578
aI4073
aI8438
aI6343
aI3917
aI8926
aI4805
aI3054
aI1677
aI6554
aI1830
aI2477
aI5394
aI4618
aI2471
aI6210
aI3003
aI2886
aI299
aI3325
aI5739
aI7795
aI8430
aI781
aI9042
aI3349
aI4024
aI143
aI6702
aI9246
aI1536
aI5153
aI3070
aI259
aI8358
aI1848
aI8488
aI4374
aI1060
aI5999
aI4639
aI1190
aI871
aI4781
aI2083
aI646
aI6850
aI4613
aI1670
aI8327
aI7029
aI3656
aI6273
aI5436
aI2519
aI1122
aI7052
aI1020
aI6621
aI390
aI7465
aI2933
aI4756
aI5214
aI2926
aI491
aI5061
aI8540
aI7915
aI2256
aI1045
aI8770
aI8819
aI9019
aI7968
aI6009
aI6970
aI1039
aI3688
aI1640
aI7811
aI3125
aI2575
aI2227
aI3701
aI1494
aI8603
aI2953
aI1283
aI3148
aI3746
aI2428
aI3984
aI7419
aI9485
aI7166
aI920
aI647
aI499
aI2865
aI713
aI4102
aI4572
aI9354
aI6672
aI4089
aI2421
aI2524
aI8949
aI8211
aI4617
aI7092
aI3015
aI5562
aI1961
aI4294
aI4355
aI6461
aI2272
aI8299
aI6302
aI658
aI113
aI5644
aI7858
aI5657
aI6793
aI3176
aI1062
aI9299
aI4904
aI3040
aI3750
aI3179
aI1315
aI5433
aI7115
aI4490
aI8192
aI2513
aI5232
aI434
aI5789
aI4211
aI7209
aI2151
aI4334
aI5095
aI2951
aI1168
aI7829
aI5748
aI688
aI6463
aI8524
aI4479
aI5612
aI5106
aI8210
aI2833
aI4528
aI5969
aI1772
aI4646
aI6477
aI8862
aI1959
aI6936
aI7608
aI9268
aI2782
aI8266
aI4571
aI247
aI3945
aI2107
aI329
aI3881
aI625
aI662
aI8890
aI7205
aI2775
aI8475
aI2044
aI430
aI8298
aI3905
aI9441
aI9509
aI5838
aI7479
aI3029
aI3305
aI8404
aI2139
aI2293
aI2869
aI4466
aI4402
aI6689
aI3499
aI5335
aI4163
aI4616
aI7613
aI1399
aI4132
aI440
aI9081
aI4497
aI2003
aI5620
aI8068
aI3025
aI4194
aI9243
aI5079
aI7601
aI6694
aI1075
aI1514
aI5721
aI2908
aI1249
aI832
aI6435
aI5873
aI4815
aI6247
aI7117
aI6212
aI9084
aI3552
aI2998
aI6391
aI1339
aI6914
aI4957
aI7
aI7004
aI5193
aI5569
aI8097
aI5533
aI4166
aI1103
aI2392
aI9365
aI8433
aI2159
aI6305
aI6126
aI2921
aI1471
aI8967
aI5377
aI6314
aI8546
aI5038
aI6794
aI3111
aI1512
aI5441
aI2930
aI3628
aI7296
aI726
aI8194
aI4854
aI6051
aI6334
aI8244
aI545
aI2235
aI1241
aI9203
aI9449
aI8676
aI4661
aI3324
aI3916
aI408
aI1443
aI9245
aI7193
aI1317
aI6412
aI9041
aI619
aI9077
aI8658
aI3379
aI6118
aI4576
aI5204
aI7546
aI2257
aI4064
aI9251
aI8517
aI7199
aI6058
aI792
aI1288
aI7377
aI6987
aI9523
aI4610
aI8929
aI5666
aI6792
aI2049
aI4794
aI8878
aI6389
aI1434
aI6169
aI5953
aI777
aI3343
aI3707
aI5936
aI8837
aI5401
aI2281
aI4054
aI7912
aI5065
aI404
aI6186
aI4737
aI9479
aI9421
aI4381
aI423
aI7426
aI2065
aI6253
aI7030
aI342
aI3509
aI854
aI6671
aI7783
aI7073
aI4322
aI6753
aI3660
aI8347
aI5638
aI3831
aI8061
aI157
aI3646
aI2698
aI7287
aI6957
aI4916
aI2150
aI3390
aI1553
aI4777
aI4934
aI5499
aI7974
aI9097
aI8071
aI5139
aI740
aI4499
aI1788
aI2143
aI4462
aI770
aI359
aI8730
aI1682
aI1979
aI8725
aI5157
aI9047
aI3156
aI7140
aI3112
aI8172
aI5090
aI1098
aI8312
aI3049
aI9025
aI6420
aI9069
aI6669
aI5321
aI7082
aI7162
aI4873
aI5412
aI5558
aI2326
aI8861
aI6059
aI2703
aI1795
aI1890
aI2075
aI5324
aI2126
aI5305
aI7151
aI3764
aI1338
aI1452
aI4413
aI243
aI4724
aI4279
aI4558
aI811
aI7924
aI3291
aI5793
aI8412
aI535
aI2457
aI10
aI9484
aI6393
aI8169
aI4730
aI8165
aI9456
aI6798
aI476
aI6077
aI1864
aI1384
aI7524
aI4376
aI7043
aI8372
aI2140
aI3306
aI6878
aI1291
aI9121
aI1837
aI6231
aI3721
aI3763
aI48
aI4878
aI2412
aI376
aI1579
aI8836
aI1925
aI7088
aI1334
aI367
aI4543
aI3351
aI1716
aI2248
aI7615
aI7182
aI9486
aI512
aI2745
aI1908
aI6033
aI6810
aI3089
aI257
aI8403
aI3320
aI1503
aI8287
aI5730
aI9035
aI6421
aI3864
aI7001
aI2098
aI602
aI4505
aI5243
aI4669
aI5365
aI6072
aI3408
aI6042
aI9155
aI2688
aI2663
aI9118
aI6585
aI2796
aI1735
aI7902
aI36
aI4407
aI7887
aI805
aI2828
aI2315
aI6276
aI7041
aI9513
aI905
aI1978
aI720
aI8217
aI6578
aI537
aI5770
aI34
aI3336
aI3797
aI8786
aI2879
aI3740
aI6961
aI4197
aI4968
aI3759
aI5841
aI3304
aI8431
aI1250
aI2866
aI5855
aI5410
aI4802
aI4159
aI1029
aI2593
aI1591
aI3257
aI5307
aI2644
aI5427
aI615
aI753
aI4869
aI8785
aI4472
aI1258
aI9466
aI207
aI2516
aI6227
aI4399
aI2156
aI7855
aI5916
aI957
aI4210
aI4757
aI1107
aI1527
aI8288
aI6832
aI3409
aI6965
aI2650
aI3420
aI5531
aI3739
aI1150
aI1472
aI6969
aI6812
aI2217
aI6448
aI8469
aI3410
aI3825
aI7797
aI9086
aI3841
aI3536
aI5469
aI4924
aI3479
aI3314
aI3158
aI4915
aI7337
aI9363
aI145
aI922
aI8181
aI4213
aI4438
aI1671
aI8696
aI8673
aI3814
aI5341
aI966
aI7442
aI6739
aI3875
aI3533
aI6664
aI7153
aI6005
aI1127
aI30
aI7081
aI3942
aI225
aI7578
aI3524
aI8699
aI4735
aI789
aI4173
aI7946
aI7094
aI8340
aI4623
aI153
aI8590
aI7935
aI6070
aI1999
aI1747
aI2547
aI1004
aI942
aI3198
aI3283
aI7636
aI7369
aI5303
aI6050
aI4177
aI7394
aI8903
aI1100
aI8611
aI3406
aI5231
aI3092
aI312
aI631
aI1214
aI4245
aI268
aI436
aI1983
aI5150
aI6765
aI6016
aI5462
aI1874
aI5261
aI2852
aI1071
aI737
aI5011
aI4180
aI9223
aI6444
aI2350
aI59
aI7143
aI2174
aI447
aI5130
aI1726
aI3639
aI8392
aI1238
aI7332
aI4923
aI4353
aI5194
aI9475
aI8024
aI2163
aI1275
aI4401
aI4992
aI3189
aI852
aI1496
aI4062
aI2793
aI7204
aI1824
aI9512
aI3966
aI3327
aI4511
aI5177
aI1244
aI711
aI7381
aI7876
aI6411
aI7604
aI3730
aI6290
aI8981
aI8557
aI8550
aI2320
aI4679
aI1936
aI3719
aI6660
aI6831
aI5298
aI7590
aI2521
aI707
aI3575
aI5383
aI5787
aI5516
aI3066
aI9335
aI2799
aI1511
aI5508
aI8516
aI3243
aI3878
aI3859
aI7814
aI6915
aI4809
aI5288
aI5051
aI7011
aI3398
aI8376
aI2633
aI1568
aI8778
aI1009
aI4560
aI6842
aI6556
aI8082
aI7798
aI3093
aI4652
aI5647
aI4000
aI817
aI1270
aI5340
aI507
aI8692
aI490
aI6492
aI605
aI616
aI7490
aI9302
aI5244
aI8062
aI8773
aI2528
aI171
aI8272
aI9329
aI2292
aI5423
aI796
aI8478
aI7623
aI4404
aI2740
aI6225
aI6858
aI8339
aI5792
aI6879
aI5603
aI6881
aI4938
aI6386
aI4006
aI531
aI3685
aI7730
aI382
aI5600
aI4421
aI6517
aI6121
aI1778
aI4172
aI4033
aI1085
aI2590
aI2129
aI4082
aI3248
aI85
aI1763
aI1652
aI4949
aI8897
aI5707
aI8487
aI2544
aI3748
aI3075
aI352
aI136
aI8718
aI5007
aI7270
aI3956
aI5448
aI2310
aI1232
aI8801
aI63
aI2019
aI8806
aI9241
aI2809
aI7279
aI9162
aI9128
aI2739
aI4471
aI3908
aI3608
aI3563
aI2664
aI8996
aI750
aI3641
aI9271
aI2560
aI298
aI8558
aI7176
aI7975
aI55
aI636
aI1689
aI3530
aI275
aI236
aI5701
aI3617
aI7612
aI6375
aI4058
aI2226
aI3032
aI2454
aI4452
aI3887
aI5434
aI1966
aI3985
aI5778
aI4921
aI8053
aI9073
aI4290
aI1822
aI3432
aI80
aI2634
aI4826
aI5140
aI5522
aI6447
aI4751
aI4470
aI899
aI3477
aI6073
aI9092
aI4160
aI5368
aI790
aI2294
aI3140
aI4056
aI7187
aI3500
aI8483
aI7957
aI3065
aI5403
aI5810
aI8278
aI2440
aI7695
aI1321
aI4563
aI1093
aI4697
aI5957
aI3999
aI2878
aI943
aI1485
aI795
aI2133
aI5720
aI7145
aI6063
aI8440
aI3236
aI6111
aI2508
aI3643
aI1516
aI8957
aI1235
aI9279
aI3497
aI7777
aI1466
aI1325
aI5915
aI2212
aI926
aI3038
aI5799
aI2243
aI4570
aI5188
aI5506
aI3801
aI6986
aI150
aI7477
aI4208
aI3417
aI3912
aI3760
aI4645
aI1446
aI3940
aI3858
aI2180
aI5269
aI218
aI2668
aI7538
aI4034
aI1665
aI7180
aI7444
aI6514
aI6571
aI1963
aI1663
aI9430
aI8406
aI5212
aI7824
aI5053
aI2952
aI5636
aI2623
aI2290
aI1195
aI2896
aI4625
aI1226
aI7148
aI338
aI1836
aI7881
aI5574
aI2483
aI1918
aI673
aI5675
aI3923
aI5875
aI7588
aI8993
aI7746
aI7625
aI9160
aI6507
aI2200
aI7016
aI5418
aI1007
aI1907
aI5514
aI8013
aI7944
aI2522
aI4620
aI6000
aI8606
aI8575
aI8293
aI4848
aI5545
aI3418
aI8860
aI5411
aI1842
aI1081
aI8939
aI5903
aI4312
aI5494
aI4960
aI6570
aI2251
aI7668
aI6524
aI8937
aI1802
aI848
aI9342
aI364
aI35
aI6373
aI5502
aI6941
aI954
aI4278
aI45
aI7812
aI294
aI1923
aI7513
aI959
aI6081
aI1899
aI8695
aI2566
aI8733
aI340
aI91
aI9388
aI6956
aI7263
aI6176
aI1373
aI7399
aI3280
aI5824
aI6174
aI3383
aI8998
aI5863
aI861
aI1757
aI3014
aI7420
aI7079
aI9122
aI6467
aI8215
aI8343
aI930
aI6406
aI519
aI1475
aI1618
aI3665
aI5402
aI6631
aI5682
aI5833
aI8087
aI4206
aI252
aI7735
aI6161
aI2654
aI1947
aI2238
aI6299
aI251
aI5409
aI1888
aI3818
aI2071
aI2425
aI2707
aI8960
aI40
aI5134
aI3559
aI3242
aI7799
aI9176
aI3002
aI190
aI6983
aI8832
aI4226
aI6099
aI1710
aI7489
aI3715
aI3616
aI3578
aI9216
aI8276
aI4920
aI8235
aI6848
aI3225
aI8369
aI4945
aI3116
aI1969
aI7309
aI8499
aI3468
aI7955
aI3919
aI3648
aI9254
aI7759
aI8077
aI235
aI4447
aI2645
aI3160
aI9405
aI1293
aI3124
aI5027
aI4021
aI4273
aI2064
aI8300
aI1500
aI6690
aI3991
aI4605
aI6405
aI6579
aI665
aI1198
aI3119
aI6356
aI5331
aI8127
aI3013
aI325
aI1981
aI3574
aI3795
aI1791
aI9336
aI4884
aI4012
aI7347
aI3018
aI9424
aI8717
aI9217
aI3674
aI2253
aI1482
aI203
aI6236
aI6744
aI6736
aI289
aI122
aI1376
aI4079
aI6591
aI3986
aI6715
aI8034
aI2988
aI7671
aI6307
aI734
aI8063
aI4182
aI5624
aI8415
aI1296
aI7097
aI903
aI6889
aI8609
aI4955
aI5995
aI7362
aI8329
aI885
aI1728
aI6234
aI2225
aI3516
aI3010
aI8199
aI3109
aI8749
aI3542
aI4
aI8602
aI1613
aI5349
aI4769
aI3044
aI6366
aI347
aI7537
aI6544
aI1863
aI6026
aI6348
aI4885
aI5211
aI5819
aI6014
aI1416
aI7085
aI5732
aI4412
aI4715
aI5868
aI7786
aI20
aI6277
aI2678
aI5144
aI8752
aI2447
aI2008
aI8242
aI3436
aI5696
aI2314
aI9030
aI2798
aI4953
aI8156
aI7396
aI9053
aI4484
aI7093
aI6679
aI7801
aI5172
aI3074
aI7723
aI9199
aI3612
aI1829
aI8634
aI3586
aI2490
aI2363
aI992
aI6342
aI8990
aI6485
aI2850
aI8762
aI5865
aI6394
aI1946
aI4561
aI4298
aI5997
aI7150
aI3663
aI5187
aI4654
aI8855
aI6494
aI262
aI6237
aI1267
aI5084
aI7850
aI9298
aI4429
aI1005
aI297
aI5266
aI6786
aI103
aI5700
aI5468
aI5754
aI2223
aI5458
aI3442
aI2300
aI3538
aI1312
aI1621
aI1059
aI2430
aI6618
aI1792
aI6558
aI8788
aI47
aI1080
aI8046
aI7411
aI6779
aI7414
aI7948
aI1242
aI5159
aI7163
aI8170
aI2144
aI800
aI8690
aI1025
aI6045
aI2616
aI818
aI4454
aI9229
aI2317
aI3117
aI6601
aI5330
aI1425
aI6241
aI797
aI7853
aI3777
aI195
aI3806
aI809
aI3141
aI4188
aI3672
aI33
aI2976
aI7840
aI4443
aI3490
aI5480
aI5359
aI206
aI7651
aI7371
aI6295
aI2081
aI583
aI9518
aI1231
aI5023
aI6404
aI6093
aI4167
aI2473
aI5054
aI5006
aI9071
aI8545
aI8109
aI4642
aI4975
aI6650
aI6646
aI9169
aI9186
aI751
aI4409
aI3056
aI6647
aI6673
aI1385
aI2938
aI2171
aI3785
aI2973
aI1259
aI1394
aI7314
aI5938
aI7155
aI3259
aI2103
aI4120
aI3019
aI1600
aI5102
aI77
aI1332
aI7682
aI7354
aI6838
aI1817
aI6911
aI5576
aI8110
aI6382
aI1784
aI6152
aI1137
aI4432
aI2596
aI1798
aI5631
aI7684
aI731
aI6057
aI7378
aI2801
aI3853
aI5161
aI1096
aI1138
aI5272
aI517
aI496
aI8275
aI8646
aI627
aI9436
aI8679
aI4145
aI4293
aI9488
aI895
aI4719
aI5453
aI6230
aI6206
aI5286
aI7064
aI8592
aI6608
aI1200
aI3332
aI2814
aI1387
aI2769
aI6900
aI2233
aI7488
aI4750
aI2928
aI7719
aI3334
aI7379
aI5196
aI7035
aI7966
aI7147
aI5399
aI5577
aI4812
aI8579
aI815
aI6328
aI7402
aI5184
aI2615
aI4515
aI774
aI5317
aI8994
aI3229
aI775
aI5560
aI8712
aI9043
aI6409
aI6468
aI1052
aI5785
aI5797
aI3227
aI6645
aI9012
aI3136
aI6003
aI5260
aI42
aI1879
aI8656
aI8915
aI6335
aI3943
aI6069
aI9361
aI6772
aI3877
aI7559
aI6625
aI2270
aI3862
aI3347
aI6337
aI7466
aI4271
aI7481
aI7852
aI2135
aI6820
aI4633
aI8057
aI5015
aI6758
aI3385
aI9428
aI4600
aI5958
aI850
aI4798
aI1515
aI2287
aI1929
aI3172
aI3724
aI6344
aI7141
aI2510
aI3121
aI8566
aI9074
aI4026
aI1706
aI5879
aI9087
aI3823
aI451
aI5390
aI3288
aI8563
aI4808
aI8334
aI6964
aI2205
aI5105
aI728
aI9191
aI6814
aI3826
aI4856
aI6496
aI971
aI4778
aI7315
aI3518
aI5869
aI3486
aI6459
aI5278
aI8119
aI9280
aI4897
aI3805
aI2160
aI692
aI5954
aI4813
aI1903
aI1723
aI7782
aI8966
aI5375
aI7432
aI1577
aI6270
aI1602
aI7222
aI6781
aI1445
aI9148
aI3815
aI6090
aI1518
aI981
aI9137
aI4725
aI4368
aI6552
aI5571
aI6581
aI5586
aI4895
aI6049
aI3433
aI3839
aI9039
aI7742
aI7717
aI2354
aI9452
aI6526
aI7920
aI6084
aI6476
aI5225
aI4789
aI7253
aI1558
aI5001
aI5692
aI7358
aI5745
aI4914
aI2169
aI8021
aI4445
aI4627
aI9091
aI112
aI9222
aI1473
aI9105
aI9331
aI4239
aI1987
aI2883
aI5358
aI1974
aI3576
aI6998
aI3134
aI4371
aI5032
aI7137
aI6733
aI4439
aI1076
aI9275
aI8129
aI7846
aI8521
aI1172
aI6350
aI3928
aI1609
aI1182
aI9201
aI135
aI9387
aI3046
aI7516
aI8377
aI441
aI6518
aI7429
aI4947
aI5818
aI7158
aI8220
aI4753
aI3321
aI7851
aI5977
aI362
aI9179
aI1635
aI3371
aI924
aI2122
aI7658
aI5738
aI7880
aI4601
aI1237
aI5325
aI3758
aI9089
aI9133
aI1015
aI9
aI7497
aI2523
aI1018
aI2839
aI9443
aI8859
aI7196
aI3482
aI8193
aI8444
aI764
aI9045
aI7475
aI8457
aI3998
aI8213
aI3568
aI7132
aI4059
aI2191
aI2258
aI2366
aI2585
aI1318
aI8844
aI6854
aI3722
aI3312
aI3577
aI4655
aI1694
aI4176
aI8437
aI9437
aI8630
aI4604
aI2603
aI3178
aI253
aI5073
aI6644
aI4508
aI7885
aI2295
aI5527
aI5357
aI8781
aI1901
aI5018
aI7576
aI8182
aI2078
aI7610
aI1309
aI6160
aI8285
aI9319
aI1128
aI2086
aI6950
aI5490
aI6901
aI1113
aI4456
aI6068
aI4861
aI7831
aI4592
aI3480
aI6455
aI982
aI7130
aI4800
aI5782
aI4292
aI3448
aI4215
aI717
aI1272
aI3316
aI2220
aI4158
aI497
aI5070
aI1474
aI5356
aI5395
aI9312
aI758
aI2887
aI9323
aI3071
aI7473
aI754
aI6642
aI5087
aI1653
aI4469
aI2333
aI2100
aI5374
aI6864
aI4017
aI635
aI2123
aI1642
aI2011
aI8845
aI7698
aI8122
aI9425
aI1142
aI5455
aI8262
aI7192
aI4266
aI6327
aI6626
aI4009
aI4344
aI204
aI7229
aI1378
aI4621
aI8230
aI9500
aI46
aI492
aI3734
aI1428
aI6417
aI7526
aI7281
aI2239
aI2351
aI4138
aI2229
aI8228
aI8865
aI7149
aI6242
aI3698
aI9050
aI974
aI655
aI4693
aI6392
aI3416
aI3027
aI3473
aI759
aI2501
aI2936
aI6281
aI7788
aI1704
aI7208
aI8314
aI2843
aI1737
aI4898
aI2481
aI9276
aI6442
aI5994
aI4130
aI7552
aI4787
aI591
aI9423
aI2371
aI2232
aI7239
aI594
aI8453
aI576
aI1872
aI3151
aI2322
aI3263
aI2097
aI4903
aI3729
aI6198
aI5513
aI3645
aI8180
aI6291
aI890
aI6866
aI7459
aI1942
aI7860
aI1344
aI9202
aI641
aI8973
aI8552
aI8466
aI598
aI9102
aI6413
aI825
aI4417
aI8035
aI1740
aI4536
aI7241
aI3817
aI849
aI4265
aI9476
aI7111
aI9258
aI8746
aI9190
aI7214
aI927
aI8458
aI6925
aI7478
aI8380
aI3457
aI5389
aI663
aI344
aI8048
aI937
aI1304
aI7550
aI1703
aI5884
aI7981
aI6151
aI5584
aI8556
aI4410
aI7310
aI744
aI6691
aI2511
aI7731
aI8049
aI3165
aI395
aI7637
aI1388
aI7683
aI8827
aI2824
aI7793
aI3230
aI5432
aI5859
aI6678
aI3127
aI9417
aI4003
aI6304
aI2877
aI8012
aI6193
aI5987
aI8239
aI9261
aI9085
aI3562
aI6091
aI3594
aI4622
aI2219
aI763
aI4907
aI6780
aI1547
aI7740
aI1340
aI8705
aI1290
aI9455
aI5886
aI6725
aI4870
aI2676
aI2335
aI6431
aI3710
aI9027
aI8206
aI3938
aI6658
aI6808
aI2249
aI8623
aI6860
aI6102
aI1438
aI1643
aI8756
aI88
aI3359
aI2929
aI295
aI5444
aI8060
aI8337
aI8280
aI9491
aI126
aI9356
aI8104
aI6638
aI549
aI8702
aI2964
aI49
aI1876
aI4746
aI1390
aI401
aI7584
aI794
aI2712
aI9355
aI8822
aI4065
aI3405
aI474
aI4821
aI3237
aI7727
aI4519
aI445
aI2382
aI3590
aI4594
aI1919
aI3867
aI3886
aI552
aI5189
aI4092
aI6139
aI7598
aI9481
aI3949
aI6759
aI5566
aI3392
aI1028
aI9213
aI4858
aI8305
aI3215
aI6928
aI3573
aI7532
aI7441
aI4591
aI6473
aI6067
aI9510
aI8766
aI467
aI9377
aI3157
aI3668
aI8740
aI561
aI6351
aI3892
aI8076
aI4890
aI4754
aI1345
aI634
aI3286
aI2014
aI4091
aI8101
aI4720
aI479
aI6321
aI24
aI6865
aI6706
aI1030
aI5477
aI9432
aI9458
aI868
aI842
aI1823
aI110
aI2495
aI5276
aI4626
aI9270
aI799
aI5774
aI1964
aI4910
aI2036
aI6628
aI5180
aI5207
aI7447
aI7622
aI5517
aI7361
aI6577
aI7410
aI9394
aI8612
aI3011
aI2977
aI5353
aI6031
aI8560
aI5160
aI1619
aI3216
aI2841
aI1056
aI7434
aI9470
aI1945
aI4069
aI8058
aI1063
aI1491
aI6778
aI4733
aI6159
aI2550
aI4042
aI5930
aI7275
aI4562
aI1941
aI4779
aI2624
aI5595
aI2873
aI8971
aI8354
aI1069
aI8072
aI5158
aI3370
aI7067
aI6259
aI5996
aI1768
aI5668
aI6916
aI5074
aI3128
aI4551
aI8420
aI5094
aI6872
aI3856
aI9465
aI1105
aI4095
aI3962
aI743
aI5195
aI1216
aI6894
aI9483
aI1590
aI4677
aI4727
aI407
aI3478
aI7435
aI2466
aI5344
aI3201
aI8729
aI5826
aI2356
aI7322
aI6789
aI5959
aI6250
aI2497
aI1126
aI1111
aI4348
aI6520
aI4615
aI3206
aI4851
aI8399
aI2862
aI5424
aI509
aI1782
aI2851
aI9317
aI2365
aI8944
aI1586
aI6315
aI5314
aI1627
aI1529
aI4104
aI8029
aI6980
aI8510
aI7929
aI1414
aI1019
aI3546
aI5407
aI7033
aI7566
aI7665
aI6519
aI8146
aI1467
aI8413
aI3844
aI4810
aI3882
aI5446
aI4653
aI1460
aI7977
aI8099
aI7431
aI2299
aI755
aI2402
aI1490
aI2146
aI8214
aI6424
aI148
aI8808
aI3232
aI4874
aI7624
aI4031
aI5203
aI3287
aI2705
aI5672
aI6668
aI6040
aI1498
aI9168
aI8765
aI6675
aI7830
aI7233
aI9007
aI3380
aI2221
aI9293
aI6953
aI1118
aI8653
aI8306
aI38
aI3580
aI5767
aI8083
aI5336
aI4736
aI1894
aI4093
aI3143
aI2794
aI2145
aI967
aI8292
aI1171
aI5758
aI8901
aI1441
aI3525
aI2966
aI1854
aI2079
aI4143
aI2004
aI5241
aI5405
aI3968
aI2405
aI5895
aI2533
aI7452
aI8743
aI271
aI9023
aI3296
aI4302
aI7517
aI5201
aI345
aI183
aI2860
aI7372
aI199
aI1061
aI1742
aI8003
aI9503
aI3047
aI6286
aI8008
aI8381
aI807
aI5892
aI8089
aI1751
aI4659
aI6746
aI2640
aI2437
aI6967
aI4043
aI1845
aI9013
aI2542
aI3974
aI4577
aI2611
aI6340
aI354
aI3584
aI7643
aI3611
aI7409
aI25
aI8442
aI1165
aI2228
aI7573
aI1661
aI6309
aI7446
aI8544
aI7009
aI4382
aI5839
aI7191
aI2434
aI3094
aI722
aI9391
aI2538
aI6922
aI2526
aI19
aI3438
aI1724
aI5891
aI8816
aI5009
aI8283
aI546
aI7427
aI6135
aI3192
aI2067
aI101
aI2424
aI9416
aI5227
aI5034
aI2600
aI2876
aI9068
aI7395
aI8895
aI5591
aI3167
aI1357
aI8484
aI176
aI7760
aI6698
aI1787
aI2687
aI2789
aI9244
aI7734
aI5113
aI201
aI5459
aI3903
aI8764
aI3678
aI3834
aI3709
aI1838
aI8698
aI16
aI8538
aI4360
aI8830
aI8638
aI540
aI2625
aI1162
aI5066
aI5750
aI6826
aI1891
aI5932
aI412
aI8619
aI3978
aI8307
aI3723
aI6359
aI1805
aI8548
aI215
aI5289
aI8132
aI7913
aI9284
aI2369
aI2196
aI1347
aI4506
aI2448
aI471
aI8331
aI4105
aI7248
aI5955
aI7564
aI1841
aI3088
aI638
aI4142
aI164
aI6540
aI6358
aI3309
aI8972
aI2923
aI2911
aI5608
aI69
aI8388
aI961
aI784
aI5971
aI5096
aI2658
aI2631
aI8316
aI1286
aI6288
aI2849
aI4096
aI2277
aI9185
aI6924
aI4704
aI7343
aI5553
aI6917
aI820
aI742
aI4865
aI1766
aI916
aI2394
aI632
aI6674
aI8067
aI370
aI4776
aI2024
aI5220
aI7286
aI4836
aI6727
aI2289
aI8838
aI2488
aI387
aI3023
aI2556
aI8191
aI7127
aI7965
aI3799
aI386
aI4629
aI7708
aI6636
aI6486
aI538
aI3428
aI2655
aI7819
aI4262
aI6219
aI4721
aI5174
aI901
aI6825
aI3258
aI1383
aI779
aI5823
aI4318
aI5559
aI5658
aI1741
aI1935
aI6821
aI2479
aI3298
aI651
aI8482
aI4107
aI8768
aI2682
aI5512
aI2088
aI706
aI1110
aI8511
aI1826
aI7344
aI6513
aI2188
aI3936
aI4928
aI3632
aI857
aI4582
aI941
aI4675
aI8607
aI4463
aI4663
aI3057
aI1614
aI7699
aI7857
aI5742
aI4361
aI5585
aI7018
aI1819
aI611
aI2606
aI5598
aI915
aI2601
aI5089
aI377
aI6523
aI2587
aI8953
aI8771
aI2744
aI343
aI963
aI8365
aI3975
aI8846
aI8126
aI1563
aI1072
aI3357
aI7243
aI9016
aI3185
aI7089
aI6046
aI6292
aI6128
aI6701
aI4603
aI1525
aI9333
aI3323
aI5454
aI7681
aI1975
aI1633
aI339
aI8799
aI6137
aI2781
aI3637
aI4760
aI5854
aI3166
aI9379
aI3394
aI9120
aI3226
aI6560
aI8322
aI6060
aI7585
aI1429
aI6244
aI4171
aI4014
aI8141
aI3669
aI4347
aI7463
aI2997
aI287
aI649
aI4219
aI3950
aI7302
aI862
aI186
aI7101
aI7262
aI2028
aI9207
aI6322
aI4612
aI3045
aI2222
aI3871
aI6904
aI5520
aI1170
aI6643
aI7868
aI5703
aI302
aI8037
aI7641
aI7131
aI8951
aI7520
aI3965
aI7833
aI3700
aI8232
aI9399
aI6547
aI7649
aI9327
aI9094
aI9172
aI3000
aI7020
aI600
aI8969
aI2009
aI7839
aI1539
aI654
aI8917
aI3769
aI3607
aI838
aI1582
aI2070
aI1605
aI1086
aI2271
aI3971
aI5525
aI6652
aI592
aI4125
aI7503
aI267
aI9138
aI9067
aI8716
aI2636
aI9024
aI4726
aI5904
aI556
aI5166
aI4544
aI2532
aI6997
aI3587
aI4192
aI9408
aI4963
aI2340
aI7993
aI3838
aI8085
aI3545
aI8274
aI6641
aI4843
aI2713
aI7896
aI4085
aI2482
aI2891
aI5131
aI2353
aI6859
aI1755
aI4579
aI8038
aI3600
aI7609
aI2960
aI7460
aI6191
aI3855
aI1571
aI1367
aI2464
aI983
aI410
aI7994
aI6224
aI2760
aI7893
aI7770
aI8817
aI1930
aI1041
aI8624
aI7269
aI7630
aI5208
aI4597
aI964
aI8625
aI7756
aI9454
aI3898
aI8936
aI8270
aI9393
aI8564
aI1377
aI4071
aI7826
aI5521
aI6370
aI6274
aI130
aI5659
aI6166
aI3393
aI4691
aI8509
aI7800
aI6065
aI194
aI3963
aI5270
aI5265
aI9232
aI2048
aI2821
aI6622
aI3863
aI4136
aI7934
aI8234
aI5182
aI2733
aI7619
aI2413
aI7028
aI8357
aI3020
aI1924
aI8959
aI821
aI6525
aI7519
aI4375
aI2030
aI4109
aI6946
aI1050
aI1411
aI4400
aI4004
aI1141
aI2863
aI1712
aI6815
aI6795
aI2819
aI6300
aI8928
aI6593
aI1337
aI188
aI374
aI7592
aI465
aI3747
aI5852
aI6433
aI3899
aI1612
aI2096
aI5781
aI9289
aI808
aI5889
aI1115
aI550
aI8114
aI1247
aI2672
aI2741
aI8792
aI3030
aI8171
aI527
aI2461
aI5693
aI1205
aI2198
aI5593
aI3821
aI8769
aI4510
aI5790
aI7894
aI7904
aI2311
aI4583
aI660
aI9352
aI432
aI2343
aI4500
aI2748
aI4996
aI2433
aI3335
aI2345
aI7174
aI6401
aI6132
aI1578
aI9464
aI1580
aI1951
aI4740
aI3
aI4131
aI7837
aI6663
aI4722
aI785
aI8373
aI3994
aI7515
aI4028
aI8200
aI8747
aI6478
aI7236
aI3890
aI3726
aI3512
aI7133
aI2029
aI8022
aI1253
aI9392
aI399
aI109
aI3765
aI3498
aI8748
aI2690
aI4892
aI4852
aI5439
aI2897
aI3598
aI4744
aI5167
aI9438
aI7721
aI4886
aI1673
aI8304
aI6504
aI4518
aI1227
aI7662
aI155
aI6257
aI6001
aI4676
aI4149
aI8149
aI8810
aI4185
aI4513
aI5092
aI1480
aI6767
aI5060
aI7816
aI917
aI114
aI4682
aI5479
aI1379
aI845
aI1012
aI9250
aI7506
aI3425
aI4690
aI5769
aI5968
aI7941
aI2761
aI6637
aI5557
aI2423
aI725
aI6440
aI4243
aI2312
aI508
aI7738
aI5239
aI7605
aI2582
aI1570
aI6415
aI1866
aI2082
aI2681
aI8640
aI4520
aI244
aI7907
aI6963
aI8243
aI4995
aI9200
aI6569
aI3551
aI429
aI8576
aI1145
aI8032
aI8735
aI8984
aI2893
aI4198
aI8805
aI2429
aI783
aI7753
aI1279
aI12
aI7733
aI7785
aI998
aI5630
aI1335
aI4523
aI8727
aI5041
aI620
aI5736
aI7796
aI8070
aI5578
aI802
aI3220
aI503
aI582
aI7557
aI4711
aI1265
aI151
aI6144
aI1469
aI972
aI5621
aI1106
aI28
aI2648
aI9135
aI1488
aI7492
aI5275
aI5555
aI7543
aI1862
aI3135
aI3693
aI1548
aI6280
aI7769
aI2242
aI3636
aI7385
aI8026
aI771
aI7334
aI105
aI4436
aI1705
aI4331
aI708
aI7895
aI7121
aI7709
aI1386
aI1088
aI2581
aI6923
aI4991
aI8668
aI5348
aI5919
aI5467
aI8491
aI94
aI1656
aI4688
aI8360
aI5579
aI5678
aI3753
aI6816
aI1389
aI4277
aI9330
aI2323
aI405
aI1530
aI5224
aI6716
aI6501
aI388
aI4272
aI7976
aI5392
aI9110
aI6450
aI3337
aI5050
aI3939
aI438
aI6975
aI3560
aI8589
aI1776
aI3873
aI8424
aI6112
aI4811
aI1130
aI3980
aI3300
aI3421
aI1156
aI5226
aI7635
aI5899
aI5674
aI7951
aI9161
aI78
aI5003
aI8850
aI997
aI5114
aI5199
aI8247
aI2262
aI5617
aI4228
aI8828
aI9056
aI940
aI71
aI6583
aI8123
aI3638
aI3180
aI7072
aI5
aI9496
aI6341
aI9238
aI3463
aI9076
aI8252
aI3356
aI8687
aI121
aI6055
aI2084
aI739
aI4984
aI8421
aI5744
aI4846
aI7528
aI5127
aI8867
aI6745
aI291
aI5518
aI1931
aI337
aI2602
aI3475
aI5302
aI8006
aI7380
aI1998
aI1021
aI2057
aI6082
aI4550
aI8473
aI5808
aI393
aI5681
aI1412
aI4538
aI4481
aI608
aI5415
aI8514
aI3024
aI2827
aI6863
aI8877
aI8710
aI9407
aI3276
aI3048
aI3604
aI8284
aI3090
aI6604
aI1773
aI6522
aI5831
aI2702
aI1350
aI3245
aI495
aI3235
aI2076
aI296
aI6491
aI6837
aI4201
aI3664
aI5215
aI420
aI7862
aI7260
aI8574
aI9305
aI2260
aI3848
aI1812
aI3455
aI1097
aI5081
aI1905
aI7522
aI5450
aI1962
aI2278
aI8888
aI1860
aI888
aI9307
aI3958
aI8703
aI336
aI7697
aI5229
aI6464
aI9139
aI1292
aI6355
aI6886
aI1691
aI58
aI9108
aI3544
aI4216
aI1181
aI6999
aI2068
aI255
aI7445
aI6722
aI1453
aI324
aI7808
aI4118
aI4541
aI314
aI2746
aI8775
aI2110
aI3194
aI8303
aI6677
aI8007
aI8790
aI7593
aI5431
aI6365
aI3277
aI9151
aI3816
aI2537
aI2614
aI417
aI8395
aI4052
aI9065
aI2330
aI3068
aI4665
aI2303
aI482
aI3481
aI7136
aI4165
aI120
aI2178
aI4640
aI7673
aI3329
aI8580
aI7983
aI6835
aI11
aI397
aI8739
aI1546
aI2777
aI6766
aI5978
aI6609
aI1596
aI4238
aI8098
aI9350
aI9001
aI7984
aI424
aI7646
aI1352
aI8410
aI7838
aI1544
aI2947
aI3080
aI435
aI8723
aI5946
aI715
aI5737
aI2980
aI8536
aI3169
aI7023
aI7877
aI2352
aI4602
aI9364
aI317
aI1454
aI1573
aI6762
aI6313
aI2263
aI3035
aI5874
aI6385
aI6092
aI5537
aI3770
aI8641
aI7070
aI2189
aI4962
aI513
aI2559
aI8345
aI7339
aI4453
aI7217
aI5683
aI4269
aI6656
aI3138
aI8983
aI2991
aI7274
aI7823
aI6134
aI5524
aI7865
aI8385
aI3292
aI752
aI7754
aI9143
aI1132
aI7048
aI205
aI3713
aI6705
aI5205
aI676
aI8226
aI4286
aI9227
aI9414
aI5123
aI2778
aI6648
aI652
aI7083
aI3376
aI1209
aI6061
aI9061
aI7732
aI3691
aI6437
aI5080
aI1359
aI8294
aI1418
aI2657
aI671
aI1803
aI8107
aI7871
aI2216
aI8039
aI1024
aI3028
aI9357
aI3363
aI4077
aI1017
aI5273
aI8530
aI4346
aI2807
aI5185
aI4315
aI6949
aI3703
aI3788
aI7525
aI3796
aI836
aI2626
aI9180
aI363
aI5216
aI3808
aI9020
aI6709
aI8219
aI5463
aI4040
aI9338
aI4784
aI7745
aI577
aI1702
aI4687
aI2
aI8351
aI2267
aI304
aI6681
aI2653
aI4068
aI2056
aI2895
aI8907
aI5360
aI2415
aI7765
aI9349
aI6197
aI1077
aI6968
aI8789
aI8631
aI6536
aI3476
aI6079
aI5299
aI8958
aI3857
aI4759
aI931
aI2316
aI6803
aI1003
aI7308
aI8650
aI7250
aI2012
aI4896
aI1730
aI4478
aI2978
aI452
aI2990
aI8741
aI9474
aI7647
aI548
aI1013
asg4633
(lp4639
I10928
aI10929
aI10930
aI10931
aI10932
aI10933
aI10934
aI10935
aI10936
aI10937
aI10938
aI10939
aI10940
aI10941
aI10942
aI10943
aI10944
aI10945
aI10946
aI10947
aI10948
aI10949
aI10950
aI10951
aI10952
aI10953
aI10954
aI10955
aI10956
aI10957
aI10958
aI10959
aI10960
aI10961
aI10962
aI10963
aI10964
aI10965
aI10966
aI10967
aI10968
aI10969
aI10970
aI10971
aI10972
aI10973
aI10974
aI10975
aI10976
aI10977
aI10978
aI10979
aI10980
aI10981
aI10982
aI10983
aI10984
aI10985
aI10986
aI10987
aI10988
aI10989
aI10990
aI10991
aI10992
aI10993
aI10994
aI10995
aI10996
aI10997
aI10998
aI10999
aI11000
aI11001
aI11002
aI11003
aI11004
aI11005
aI11006
aI11007
aI11008
aI11009
aI11010
aI11011
aI11012
aI11013
aI11014
aI11015
aI11016
aI11017
aI11018
aI11019
aI11020
aI11021
aI11022
aI11023
aI11024
aI11025
aI11026
aI11027
aI11028
aI11029
aI11030
aI11031
aI11032
aI11033
aI11034
aI11035
aI11036
aI11037
aI11038
aI11039
aI11040
aI11041
aI11042
aI11043
aI11044
aI11045
aI11046
aI11047
aI11048
aI11049
aI11050
aI11051
aI11052
aI11053
aI11054
aI11055
aI11056
aI11057
aI11058
aI11059
aI11060
aI11061
aI11062
aI11063
aI11064
aI11065
aI11066
aI11067
aI11068
aI11069
aI11070
aI11071
aI11072
aI11073
aI11074
aI11075
aI11076
aI11077
aI11078
aI11079
aI11080
aI11081
aI11082
aI11083
aI11084
aI11085
aI11086
aI11087
aI11088
aI11089
aI11090
aI11091
aI11092
aI11093
aI11094
aI11095
aI11096
aI11097
aI11098
aI11099
aI11100
aI11101
aI11102
aI11103
aI11104
aI11105
aI11106
aI11107
aI11108
aI11109
aI11110
aI11111
aI11112
aI11113
aI11114
aI11115
aI11116
aI11117
aI11118
aI11119
aI11120
aI11121
aI11122
aI11123
aI11124
aI11125
aI11126
aI11127
aI11128
aI11129
aI11130
aI11131
aI11132
aI11133
aI11134
aI11135
aI11136
aI11137
aI11138
aI11139
aI11140
aI11141
aI11142
aI11143
aI11144
aI11145
aI11146
aI11147
aI11148
aI11149
aI11150
aI11151
aI11152
aI11153
aI11154
aI11155
aI11156
aI11157
aI11158
aI11159
aI11160
aI11161
aI11162
aI11163
aI11164
aI11165
aI11166
aI11167
aI11168
aI11169
aI11170
aI11171
aI11172
aI11173
aI11174
aI11175
aI11176
aI11177
aI11178
aI11179
aI11180
aI11181
aI11182
aI11183
aI11184
aI11185
aI11186
aI11187
aI11188
aI11189
aI11190
aI11191
aI11192
aI11193
aI11194
aI11195
aI11196
aI11197
aI11198
aI11199
aI11200
aI11201
aI11202
aI11203
aI11204
aI11205
aI11206
aI11207
aI11208
aI11209
aI11210
aI11211
aI11212
aI11213
aI11214
aI11215
aI11216
aI11217
aI11218
aI11219
aI11220
aI11221
aI11222
aI11223
aI11224
aI11225
aI11226
aI11227
aI11228
aI11229
aI11230
aI11231
aI11232
aI11233
aI11234
aI11235
aI11236
aI11237
aI11238
aI11239
aI11240
aI11241
aI11242
aI11243
aI11244
aI11245
aI11246
aI11247
aI11248
aI11249
aI11250
aI11251
aI11252
aI11253
aI11254
aI11255
aI11256
aI11257
aI11258
aI11259
aI11260
aI11261
aI11262
aI11263
aI11264
aI11265
aI11266
aI11267
aI11268
aI11269
aI11270
aI11271
aI11272
aI11273
aI11274
aI11275
aI11276
aI11277
aI11278
aI11279
aI11280
aI11281
aI11282
aI11283
aI11284
aI11285
aI11286
aI11287
aI11288
aI11289
aI11290
aI11291
aI11292
aI11293
aI11294
aI11295
aI11296
aI11297
aI11298
aI11299
aI11300
aI11301
aI11302
aI11303
aI11304
aI11305
aI11306
aI11307
aI11308
aI11309
aI11310
aI11311
aI11312
aI11313
aI11314
aI11315
aI11316
aI11317
aI11318
aI11319
aI11320
aI11321
aI11322
aI11323
aI11324
aI11325
aI11326
aI11327
aI11328
aI11329
aI11330
aI11331
aI11332
aI11333
aI11334
aI11335
aI11336
aI11337
aI11338
aI11339
aI11340
aI11341
aI11342
aI11343
aI11344
aI11345
aI11346
aI11347
aI11348
aI11349
aI11350
aI11351
aI11352
aI11353
aI11354
aI11355
aI11356
aI11357
aI11358
aI11359
aI11360
aI11361
aI11362
aI11363
aI11364
aI11365
aI11366
aI11367
aI11368
aI11369
aI11370
aI11371
aI11372
aI11373
aI11374
aI11375
aI11376
aI11377
aI11378
aI11379
aI11380
aI11381
aI11382
aI11383
aI11384
aI11385
aI11386
aI11387
aI11388
aI11389
aI11390
aI11391
aI11392
aI11393
aI11394
aI11395
aI11396
aI11397
aI11398
aI11399
aI11400
aI11401
aI11402
aI11403
aI11404
aI11405
aI11406
aI11407
aI11408
aI11409
aI11410
aI11411
aI11412
aI11413
aI11414
aI11415
aI11416
aI11417
aI11418
aI11419
aI11420
aI11421
aI11422
aI11423
aI11424
aI11425
aI11426
aI11427
aI11428
aI11429
aI11430
aI11431
aI11432
aI11433
aI11434
aI11435
aI11436
aI11437
aI11438
aI11439
aI11440
aI11441
aI11442
aI11443
aI11444
aI11445
aI11446
aI11447
aI11448
aI11449
aI11450
aI11451
aI11452
aI11453
aI11454
aI11455
aI11456
aI11457
aI11458
aI11459
aI11460
aI11461
aI11462
aI11463
aI11464
aI11465
aI11466
aI11467
aI11468
aI11469
aI11470
aI11471
aI11472
aI11473
aI11474
aI11475
aI11476
aI11477
aI11478
aI11479
aI11480
aI11481
aI11482
aI11483
aI11484
aI11485
aI11486
aI11487
aI11488
aI11489
aI11490
aI11491
aI11492
aI11493
aI11494
aI11495
aI11496
aI11497
aI11498
aI11499
aI11500
aI11501
aI11502
aI11503
aI11504
aI11505
aI11506
aI11507
aI11508
aI11509
aI11510
aI11511
aI11512
aI11513
aI11514
aI11515
aI11516
aI11517
aI11518
aI11519
aI11520
aI11521
aI11522
aI11523
aI11524
aI11525
aI11526
aI11527
aI11528
aI11529
aI11530
aI11531
aI11532
aI11533
aI11534
aI11535
aI11536
aI11537
aI11538
aI11539
aI11540
aI11541
aI11542
aI11543
aI11544
aI11545
aI11546
aI11547
aI11548
aI11549
aI11550
aI11551
aI11552
aI11553
aI11554
aI11555
aI11556
aI11557
aI11558
aI11559
aI11560
aI11561
aI11562
aI11563
aI11564
aI11565
aI11566
aI11567
aI11568
aI11569
aI11570
aI11571
aI11572
aI11573
aI11574
aI11575
aI11576
aI11577
aI11578
aI11579
aI11580
aI11581
aI11582
aI11583
aI11584
aI11585
aI11586
aI11587
aI11588
aI11589
aI11590
aI11591
aI11592
aI11593
aI11594
aI11595
aI11596
aI11597
aI11598
aI11599
aI11600
aI11601
aI11602
aI11603
aI11604
aI11605
aI11606
aI11607
aI11608
aI11609
aI11610
aI11611
aI11612
aI11613
aI11614
aI11615
aI11616
aI11617
aI11618
aI11619
aI11620
aI11621
aI11622
aI11623
aI11624
aI11625
aI11626
aI11627
aI11628
aI11629
aI11630
aI11631
aI11632
aI11633
aI11634
aI11635
aI11636
aI11637
aI11638
aI11639
aI11640
aI11641
aI11642
aI11643
aI11644
aI11645
aI11646
aI11647
aI11648
aI11649
aI11650
aI11651
aI11652
aI11653
aI11654
aI11655
aI11656
aI11657
aI11658
aI11659
aI11660
aI11661
aI11662
aI11663
aI11664
aI11665
aI11666
aI11667
aI11668
aI11669
aI11670
aI11671
aI11672
aI11673
aI11674
aI11675
aI11676
aI11677
aI11678
aI11679
aI11680
aI11681
aI11682
aI11683
aI11684
aI11685
aI11686
aI11687
aI11688
aI11689
aI11690
aI11691
aI11692
aI11693
aI11694
aI11695
aI11696
aI11697
aI11698
aI11699
aI11700
aI11701
aI11702
aI11703
aI11704
aI11705
aI11706
aI11707
aI11708
aI11709
aI11710
aI11711
aI11712
aI11713
aI11714
aI11715
aI11716
aI11717
aI11718
aI11719
aI11720
aI11721
aI11722
aI11723
aI11724
aI11725
aI11726
aI11727
aI11728
aI11729
aI11730
aI11731
aI11732
aI11733
aI11734
aI11735
aI11736
aI11737
aI11738
aI11739
aI11740
aI11741
aI11742
aI11743
aI11744
aI11745
aI11746
aI11747
aI11748
aI11749
aI11750
aI11751
aI11752
aI11753
aI11754
aI11755
aI11756
aI11757
aI11758
aI11759
aI11760
aI11761
aI11762
aI11763
aI11764
aI11765
aI11766
aI11767
aI11768
aI11769
aI11770
aI11771
aI11772
aI11773
aI11774
aI11775
aI11776
aI11777
aI11778
aI11779
aI11780
aI11781
aI11782
aI11783
aI11784
aI11785
aI11786
aI11787
aI11788
aI11789
aI11790
aI11791
aI11792
aI11793
aI11794
aI11795
aI11796
aI11797
aI11798
aI11799
aI11800
aI11801
aI11802
aI11803
aI11804
aI11805
aI11806
aI11807
aI11808
aI11809
aI11810
aI11811
aI11812
aI11813
aI11814
aI11815
aI11816
aI11817
aI11818
aI11819
aI11820
aI11821
aI11822
aI11823
aI11824
aI11825
aI11826
aI11827
aI11828
aI11829
aI11830
aI11831
aI11832
aI11833
aI11834
aI11835
aI11836
aI11837
aI11838
aI11839
aI11840
aI11841
aI11842
aI11843
aI11844
aI11845
aI11846
aI11847
aI11848
aI11849
aI11850
aI11851
aI11852
aI11853
aI11854
aI11855
aI11856
aI11857
aI11858
aI11859
aI11860
aI11861
aI11862
aI11863
aI11864
aI11865
aI11866
aI11867
aI11868
aI11869
aI11870
aI11871
aI11872
aI11873
aI11874
aI11875
aI11876
aI11877
aI11878
aI11879
aI11880
aI11881
aI11882
aI11883
aI11884
aI11885
aI11886
aI11887
aI11888
aI11889
aI11890
aI11891
aI11892
aI11893
aI11894
aI11895
aI11896
aI11897
aI11898
aI11899
aI11900
aI11901
aI11902
aI11903
aI11904
aI11905
aI11906
aI11907
aI11908
aI11909
aI11910
aI11911
aI11912
aI11913
aI11914
aI11915
aI11916
aI11917
aI11918
aI11919
aI11920
aI11921
aI11922
aI11923
aI11924
aI11925
aI11926
aI11927
aI11928
aI11929
aI11930
aI11931
aI11932
aI11933
aI11934
aI11935
aI11936
aI11937
aI11938
aI11939
aI11940
aI11941
aI11942
aI11943
aI11944
aI11945
aI11946
aI11947
aI11948
aI11949
aI11950
aI11951
aI11952
aI11953
aI11954
aI11955
aI11956
aI11957
aI11958
aI11959
aI11960
aI11961
aI11962
aI11963
aI11964
aI11965
aI11966
aI11967
aI11968
aI11969
aI11970
aI11971
aI11972
aI11973
aI11974
aI11975
aI11976
aI11977
aI11978
aI11979
aI11980
aI11981
aI11982
aI11983
aI11984
aI11985
aI11986
aI11987
aI11988
aI11989
aI11990
aI11991
aI11992
aI11993
aI11994
aI11995
aI11996
aI11997
aI11998
aI11999
aI12000
aI12001
aI12002
aI12003
aI12004
aI12005
aI12006
aI12007
aI12008
aI12009
aI12010
aI12011
aI12012
aI12013
aI12014
aI12015
aI12016
aI12017
aI12018
aI12019
aI12020
aI12021
aI12022
aI12023
aI12024
aI12025
aI12026
aI12027
aI12028
aI12029
aI12030
aI12031
aI12032
aI12033
aI12034
aI12035
aI12036
aI12037
aI12038
aI12039
aI12040
aI12041
aI12042
aI12043
aI12044
aI12045
aI12046
aI12047
aI12048
aI12049
aI12050
aI12051
aI12052
aI12053
aI12054
aI12055
aI12056
aI12057
aI12058
aI12059
aI12060
aI12061
aI12062
aI12063
aI12064
aI12065
aI12066
aI12067
aI12068
aI12069
aI12070
aI12071
aI12072
aI12073
aI12074
aI12075
aI12076
aI12077
aI12078
aI12079
aI12080
aI12081
aI12082
aI12083
aI12084
aI12085
aI12086
aI12087
aI12088
aI12089
aI12090
aI12091
aI12092
aI12093
aI12094
aI12095
aI12096
aI12097
aI12098
aI12099
aI12100
aI12101
aI12102
aI12103
aI12104
aI12105
aI12106
aI12107
aI12108
aI12109
aI12110
aI12111
aI12112
aI12113
aI12114
aI12115
aI12116
aI12117
aI12118
aI12119
aI12120
aI12121
aI12122
aI12123
aI12124
aI12125
aI12126
aI12127
aI12128
aI12129
aI12130
aI12131
aI12132
aI12133
aI12134
aI12135
aI12136
aI12137
aI12138
aI12139
aI12140
aI12141
aI12142
aI12143
aI12144
aI12145
aI12146
aI12147
aI12148
aI12149
aI12150
aI12151
aI12152
aI12153
aI12154
aI12155
aI12156
aI12157
aI12158
aI12159
aI12160
aI12161
aI12162
aI12163
aI12164
aI12165
aI12166
aI12167
aI12168
aI12169
aI12170
aI12171
aI12172
aI12173
aI12174
aI12175
aI12176
aI12177
aI12178
aI12179
aI12180
aI12181
aI12182
aI12183
aI12184
aI12185
aI12186
aI12187
aI12188
aI12189
aI12190
aI12191
aI12192
aI12193
aI12194
aI12195
aI12196
aI12197
aI12198
aI12199
aI12200
aI12201
aI12202
aI12203
aI12204
aI12205
aI12206
aI12207
aI12208
aI12209
aI12210
aI12211
aI12212
aI12213
aI12214
aI12215
aI12216
aI12217
aI12218
aI12219
aI12220
aI12221
aI12222
aI12223
aI12224
aI12225
aI12226
aI12227
aI12228
aI12229
aI12230
aI12231
aI12232
aI12233
aI12234
aI12235
aI12236
aI12237
aI12238
aI12239
aI12240
aI12241
aI12242
aI12243
aI12244
aI12245
aI12246
aI12247
aI12248
aI12249
aI12250
aI12251
aI12252
aI12253
aI12254
aI12255
aI12256
aI12257
aI12258
aI12259
aI12260
aI12261
aI12262
aI12263
aI12264
aI12265
aI12266
aI12267
aI12268
aI12269
aI12270
aI12271
aI12272
aI12273
aI12274
aI12275
aI12276
aI12277
aI12278
aI12279
aI12280
aI12281
aI12282
aI12283
aI12284
aI12285
aI12286
aI12287
aI12288
aI12289
aI12290
aI12291
aI12292
aI12293
aI12294
aI12295
aI12296
aI12297
aI12298
aI12299
aI12300
aI12301
aI12302
aI12303
aI12304
aI12305
aI12306
aI12307
aI12308
aI12309
aI12310
aI12311
aI12312
aI12313
aI12314
aI12315
aI12316
aI12317
aI12318
aI12319
aI12320
aI12321
aI12322
aI12323
aI12324
aI12325
aI12326
aI12327
aI12328
aI12329
aI12330
aI12331
aI12332
aI12333
aI12334
aI12335
aI12336
aI12337
aI12338
aI12339
aI12340
aI12341
aI12342
aI12343
aI12344
aI12345
aI12346
aI12347
aI12348
aI12349
aI12350
aI12351
aI12352
aI12353
aI12354
aI12355
aI12356
aI12357
aI12358
aI12359
aI12360
aI12361
aI12362
aI12363
aI12364
aI12365
aI12366
aI12367
aI12368
aI12369
aI12370
aI12371
aI12372
aI12373
aI12374
aI12375
aI12376
aI12377
aI12378
aI12379
aI12380
aI12381
aI12382
aI12383
aI12384
aI12385
aI12386
aI12387
aI12388
aI12389
aI12390
aI12391
aI12392
aI12393
aI12394
aI12395
aI12396
aI12397
aI12398
aI12399
aI12400
aI12401
aI12402
aI12403
aI12404
aI12405
aI12406
aI12407
aI12408
aI12409
aI12410
aI12411
aI12412
aI12413
aI12414
aI12415
aI12416
aI12417
aI12418
aI12419
aI12420
aI12421
aI12422
aI12423
aI12424
aI12425
aI12426
aI12427
aI12428
aI12429
aI12430
aI12431
aI12432
aI12433
aI12434
aI12435
aI12436
aI12437
aI12438
aI12439
aI12440
aI12441
aI12442
aI12443
aI12444
aI12445
aI12446
aI12447
aI12448
aI12449
aI12450
aI12451
aI12452
aI12453
aI12454
aI12455
aI12456
aI12457
aI12458
aI12459
aI12460
aI12461
aI12462
aI12463
aI12464
aI12465
aI12466
aI12467
aI12468
aI12469
aI12470
aI12471
aI12472
aI12473
aI12474
aI12475
aI12476
aI12477
aI12478
aI12479
aI12480
aI12481
aI12482
aI12483
aI12484
aI12485
aI12486
aI12487
aI12488
aI12489
aI12490
aI12491
aI12492
aI12493
aI12494
aI12495
aI12496
aI12497
aI12498
aI12499
aI12500
aI12501
aI12502
aI12503
aI12504
aI12505
aI12506
aI12507
aI12508
aI12509
aI12510
aI12511
aI12512
aI12513
aI12514
aI12515
aI12516
aI12517
aI12518
aI12519
aI12520
aI12521
aI12522
aI12523
aI12524
aI12525
aI12526
aI12527
aI12528
aI12529
aI12530
aI12531
aI12532
aI12533
aI12534
aI12535
aI12536
aI12537
aI12538
aI12539
aI12540
aI12541
aI12542
aI12543
aI12544
aI12545
aI12546
aI12547
aI12548
aI12549
aI12550
aI12551
aI12552
aI12553
aI12554
aI12555
aI12556
aI12557
aI12558
aI12559
aI12560
aI12561
ass.